/*
 * Copyright (c) 2016-2018, Fuzhou Rockchip Electronics Co., Ltd
 *
 * This program is free software; you can redistribute it and/or modify
 * it under the terms of the GNU General Public License as published by
 * the Free Software Foundation; either version 2 of the License, or
 * (at your option) any later version.
 * date: 2019-05-08
 */
	.arch armv7-a
	.fpu softvfp
	.eabi_attribute 20, 1
	.eabi_attribute 21, 1
	.eabi_attribute 23, 3
	.eabi_attribute 24, 1
	.eabi_attribute 25, 1
	.eabi_attribute 26, 2
	.eabi_attribute 30, 4
	.eabi_attribute 18, 4
	.file	"rk_ftl_arm_v7.S"
	.text
	.align	2
	.type	FlashGetReadRetryDefault.part.28, %function
FlashGetReadRetryDefault.part.28:
	.fnstart
	@ args = 0, pretend = 0, frame = 0
	@ frame_needed = 0, uses_anonymous_args = 0
	cmp	r0, #33
	cmpne	r0, #65
	stmfd	sp!, {r3, lr}
	.save {r3, lr}
	beq	.L2
	cmp	r0, #66
	bne	.L3
.L2:
	ldr	r3, .L8
	mov	r2, #4
	strb	r0, [r3, #0]
	b	.L7
.L3:
	cmp	r0, #34
	cmpne	r0, #67
	bne	.L5
	ldr	r3, .L8
	mov	r2, #5
	strb	r0, [r3, #0]
.L7:
	strb	r2, [r3, #1]
	add	r0, r3, #4
	mov	r2, #7
	ldr	r1, .L8+4
	strb	r2, [r3, #2]
	mov	r2, #45
	b	.L6
.L5:
	cmp	r0, #35
	cmpne	r0, #68
	ldmnefd	sp!, {r3, pc}
	ldr	r3, .L8
	mov	r2, #5
	ldr	r1, .L8+8
	strb	r0, [r3, #0]
	add	r0, r3, #4
	strb	r2, [r3, #1]
	mov	r2, #17
	strb	r2, [r3, #2]
	mov	r2, #95
.L6:
	bl	memcpy
	ldmfd	sp!, {r3, pc}
.L9:
	.align	2
.L8:
	.word	.LANCHOR0
	.word	.LANCHOR1
	.word	.LANCHOR1+45
	.fnend
	.size	FlashGetReadRetryDefault.part.28, .-FlashGetReadRetryDefault.part.28
	.align	2
	.global	FlashMemCmp8
	.type	FlashMemCmp8, %function
FlashMemCmp8:
	.fnstart
	@ args = 0, pretend = 0, frame = 0
	@ frame_needed = 0, uses_anonymous_args = 0
	ldr	r3, .L20
	stmfd	sp!, {r4, lr}
	.save {r4, lr}
	ldrb	r3, [r3, #852]	@ zero_extendqisi2
	cmp	r3, #0
	beq	.L18
	ldrb	r3, [r1, #1]	@ zero_extendqisi2
	ldrb	ip, [r0, #1]	@ zero_extendqisi2
	cmp	ip, r3
	movne	r3, #0
	bne	.L18
	b	.L19
.L15:
	ldrb	r4, [r0, r3]	@ zero_extendqisi2
	ldrb	ip, [r1, r3]	@ zero_extendqisi2
	add	r3, r3, #1
	cmp	r4, ip
	beq	.L18
	mov	r0, r3
	ldmfd	sp!, {r4, pc}
.L18:
	cmp	r3, r2
	bne	.L15
	mov	r0, #0
	ldmfd	sp!, {r4, pc}
.L19:
	mov	r0, #0
	ldmfd	sp!, {r4, pc}
.L21:
	.align	2
.L20:
	.word	.LANCHOR0
	.fnend
	.size	FlashMemCmp8, .-FlashMemCmp8
	.align	2
	.global	FlashRsvdBlkChk
	.type	FlashRsvdBlkChk, %function
FlashRsvdBlkChk:
	.fnstart
	@ args = 0, pretend = 0, frame = 0
	@ frame_needed = 0, uses_anonymous_args = 0
	@ link register save eliminated.
	ldr	r3, .L23
	ldrb	r2, [r3, #853]	@ zero_extendqisi2
	ldr	r3, [r3, #856]
	mul	r3, r3, r2
	cmp	r1, r3
	movcs	r2, #0
	movcc	r2, #1
	cmp	r0, #0
	movne	r2, #0
	eor	r0, r2, #1
	bx	lr
.L24:
	.align	2
.L23:
	.word	.LANCHOR0
	.fnend
	.size	FlashRsvdBlkChk, .-FlashRsvdBlkChk
	.align	2
	.global	FlashGetRandomizer
	.type	FlashGetRandomizer, %function
FlashGetRandomizer:
	.fnstart
	@ args = 0, pretend = 0, frame = 0
	@ frame_needed = 0, uses_anonymous_args = 0
	and	r2, r1, #127
	ldr	r3, .L27
	stmfd	sp!, {r4, lr}
	.save {r4, lr}
	add	r3, r3, r2, asl #1
	ldrh	r4, [r3, #140]
	ldr	r3, .L27+4
	ldrb	r3, [r3, #860]	@ zero_extendqisi2
	cmp	r3, #0
	beq	.L26
	bl	FlashRsvdBlkChk
	cmp	r0, #0
	orrne	r4, r4, #-1073741824
.L26:
	mov	r0, r4
	ldmfd	sp!, {r4, pc}
.L28:
	.align	2
.L27:
	.word	.LANCHOR1
	.word	.LANCHOR0
	.fnend
	.size	FlashGetRandomizer, .-FlashGetRandomizer
	.align	2
	.global	FlashSetRandomizer
	.type	FlashSetRandomizer, %function
FlashSetRandomizer:
	.fnstart
	@ args = 0, pretend = 0, frame = 0
	@ frame_needed = 0, uses_anonymous_args = 0
	and	r2, r1, #127
	ldr	r3, .L31
	stmfd	sp!, {r4, r5, r6, lr}
	.save {r4, r5, r6, lr}
	add	r3, r3, r2, asl #1
	mov	r6, r0
	ldrh	r4, [r3, #140]
	ldr	r3, .L31+4
	ldrb	r2, [r3, #860]	@ zero_extendqisi2
	mov	r5, r3
	cmp	r2, #0
	beq	.L30
	bl	FlashRsvdBlkChk
	cmp	r0, #0
	orrne	r4, r4, #-1073741824
.L30:
	add	r5, r5, r6, asl #3
	ldr	r3, [r5, #864]
	str	r4, [r3, #336]
	ldmfd	sp!, {r4, r5, r6, pc}
.L32:
	.align	2
.L31:
	.word	.LANCHOR1
	.word	.LANCHOR0
	.fnend
	.size	FlashSetRandomizer, .-FlashSetRandomizer
	.align	2
	.global	FlashBlockAlignInit
	.type	FlashBlockAlignInit, %function
FlashBlockAlignInit:
	.fnstart
	@ args = 0, pretend = 0, frame = 0
	@ frame_needed = 0, uses_anonymous_args = 0
	@ link register save eliminated.
	ldr	r3, .L37
	cmp	r0, #256
	movhi	r2, #512
	str	r0, [r3, #856]
	bhi	.L36
	cmp	r0, #128
	bxls	lr
	mov	r2, #256
.L36:
	str	r2, [r3, #856]
	bx	lr
.L38:
	.align	2
.L37:
	.word	.LANCHOR0
	.fnend
	.size	FlashBlockAlignInit, .-FlashBlockAlignInit
	.align	2
	.global	FlashReadCmd
	.type	FlashReadCmd, %function
FlashReadCmd:
	.fnstart
	@ args = 0, pretend = 0, frame = 0
	@ frame_needed = 0, uses_anonymous_args = 0
	ldr	ip, .L40
	mov	r2, r1, lsr #16
	stmfd	sp!, {r4, lr}
	.save {r4, lr}
	add	ip, ip, r0, asl #3
	ldrb	r3, [ip, #868]	@ zero_extendqisi2
	ldr	r4, [ip, #864]
	mov	ip, #0
	add	r3, r3, #8
	add	r3, r4, r3, asl #8
	str	ip, [r3, #8]
	str	ip, [r3, #4]
	str	ip, [r3, #4]
	uxtb	ip, r1
	str	ip, [r3, #4]
	mov	ip, r1, lsr #8
	str	ip, [r3, #4]
	str	r2, [r3, #4]
	mov	r2, #48
	str	r2, [r3, #8]
	ldmfd	sp!, {r4, lr}
	b	FlashSetRandomizer
.L41:
	.align	2
.L40:
	.word	.LANCHOR0
	.fnend
	.size	FlashReadCmd, .-FlashReadCmd
	.align	2
	.global	FlashReadDpDataOutCmd
	.type	FlashReadDpDataOutCmd, %function
FlashReadDpDataOutCmd:
	.fnstart
	@ args = 0, pretend = 0, frame = 0
	@ frame_needed = 0, uses_anonymous_args = 0
	ldr	r2, .L46
	stmfd	sp!, {r4, lr}
	.save {r4, lr}
	add	ip, r2, r0, asl #3
	ldrb	r2, [r2, #912]	@ zero_extendqisi2
	ldrb	r3, [ip, #868]	@ zero_extendqisi2
	ldr	r4, [ip, #864]
	cmp	r2, #1
	add	r3, r3, #8
	mov	r2, #0
	add	r3, r4, r3, asl #8
	bne	.L43
	mov	ip, #6
	str	ip, [r3, #8]
	str	r2, [r3, #4]
	str	r2, [r3, #4]
	uxtb	r2, r1
	str	r2, [r3, #4]
	mov	r2, r1, lsr #8
	str	r2, [r3, #4]
	mov	r2, r1, lsr #16
	b	.L45
.L43:
	str	r2, [r3, #8]
	uxtb	ip, r1
	str	r2, [r3, #4]
	str	r2, [r3, #4]
	str	ip, [r3, #4]
	mov	ip, r1, lsr #8
	str	ip, [r3, #4]
	mov	ip, r1, lsr #16
	str	ip, [r3, #4]
	mov	ip, #5
	str	ip, [r3, #8]
	str	r2, [r3, #4]
.L45:
	str	r2, [r3, #4]
	mov	r2, #224
	str	r2, [r3, #8]
	ldmfd	sp!, {r4, lr}
	b	FlashSetRandomizer
.L47:
	.align	2
.L46:
	.word	.LANCHOR0
	.fnend
	.size	FlashReadDpDataOutCmd, .-FlashReadDpDataOutCmd
	.align	2
	.global	FlashProgFirstCmd
	.type	FlashProgFirstCmd, %function
FlashProgFirstCmd:
	.fnstart
	@ args = 0, pretend = 0, frame = 0
	@ frame_needed = 0, uses_anonymous_args = 0
	ldr	ip, .L49
	mov	r2, r1, lsr #16
	stmfd	sp!, {r4, lr}
	.save {r4, lr}
	add	ip, ip, r0, asl #3
	ldrb	r3, [ip, #868]	@ zero_extendqisi2
	ldr	r4, [ip, #864]
	mov	ip, #128
	add	r3, r3, #8
	add	r3, r4, r3, asl #8
	str	ip, [r3, #8]
	mov	ip, #0
	str	ip, [r3, #4]
	str	ip, [r3, #4]
	uxtb	ip, r1
	str	ip, [r3, #4]
	mov	ip, r1, lsr #8
	str	ip, [r3, #4]
	str	r2, [r3, #4]
	ldmfd	sp!, {r4, lr}
	b	FlashSetRandomizer
.L50:
	.align	2
.L49:
	.word	.LANCHOR0
	.fnend
	.size	FlashProgFirstCmd, .-FlashProgFirstCmd
	.align	2
	.global	FlashEraseCmd
	.type	FlashEraseCmd, %function
FlashEraseCmd:
	.fnstart
	@ args = 0, pretend = 0, frame = 0
	@ frame_needed = 0, uses_anonymous_args = 0
	@ link register save eliminated.
	ldr	r3, .L53
	cmp	r2, #0
	add	r0, r3, r0, asl #3
	ldr	ip, [r0, #864]
	ldrb	r0, [r0, #868]	@ zero_extendqisi2
	add	r0, r0, #8
	add	r0, ip, r0, asl #8
	beq	.L52
	ldr	r3, [r3, #856]
	mov	r2, #96
	str	r2, [r0, #8]
	uxtb	r2, r1
	str	r2, [r0, #4]
	mov	r2, r1, lsr #8
	str	r2, [r0, #4]
	mov	r2, r1, lsr #16
	add	r1, r1, r3
	str	r2, [r0, #4]
.L52:
	mov	r3, #96
	str	r3, [r0, #8]
	uxtb	r3, r1
	str	r3, [r0, #4]
	mov	r3, r1, lsr #8
	mov	r1, r1, lsr #16
	str	r3, [r0, #4]
	mov	r3, #208
	str	r1, [r0, #4]
	str	r3, [r0, #8]
	bx	lr
.L54:
	.align	2
.L53:
	.word	.LANCHOR0
	.fnend
	.size	FlashEraseCmd, .-FlashEraseCmd
	.align	2
	.global	FlashProgDpSecondCmd
	.type	FlashProgDpSecondCmd, %function
FlashProgDpSecondCmd:
	.fnstart
	@ args = 0, pretend = 0, frame = 0
	@ frame_needed = 0, uses_anonymous_args = 0
	ldr	ip, .L56
	mov	r2, r1, lsr #16
	stmfd	sp!, {r4, r5, lr}
	.save {r4, r5, lr}
	add	r4, ip, r0, asl #3
	ldrb	ip, [ip, #907]	@ zero_extendqisi2
	ldrb	r3, [r4, #868]	@ zero_extendqisi2
	ldr	r5, [r4, #864]
	add	r3, r3, #8
	add	r3, r5, r3, asl #8
	str	ip, [r3, #8]
	mov	ip, #0
	str	ip, [r3, #4]
	str	ip, [r3, #4]
	uxtb	ip, r1
	str	ip, [r3, #4]
	mov	ip, r1, lsr #8
	str	ip, [r3, #4]
	str	r2, [r3, #4]
	ldmfd	sp!, {r4, r5, lr}
	b	FlashSetRandomizer
.L57:
	.align	2
.L56:
	.word	.LANCHOR0
	.fnend
	.size	FlashProgDpSecondCmd, .-FlashProgDpSecondCmd
	.align	2
	.global	FlashProgSecondCmd
	.type	FlashProgSecondCmd, %function
FlashProgSecondCmd:
	.fnstart
	@ args = 0, pretend = 0, frame = 0
	@ frame_needed = 0, uses_anonymous_args = 0
	@ link register save eliminated.
	ldr	r3, .L59
	add	r3, r3, r0, asl #3
	ldr	r2, [r3, #864]
	ldrb	r3, [r3, #868]	@ zero_extendqisi2
	add	r3, r3, #8
	add	r3, r2, r3, asl #8
	mov	r2, #16
	str	r2, [r3, #8]
	bx	lr
.L60:
	.align	2
.L59:
	.word	.LANCHOR0
	.fnend
	.size	FlashProgSecondCmd, .-FlashProgSecondCmd
	.align	2
	.global	FlashProgDpFirstCmd
	.type	FlashProgDpFirstCmd, %function
FlashProgDpFirstCmd:
	.fnstart
	@ args = 0, pretend = 0, frame = 0
	@ frame_needed = 0, uses_anonymous_args = 0
	@ link register save eliminated.
	ldr	r3, .L62
	add	r0, r3, r0, asl #3
	ldrb	r3, [r3, #906]	@ zero_extendqisi2
	ldrb	r2, [r0, #868]	@ zero_extendqisi2
	ldr	r1, [r0, #864]
	add	r2, r2, #8
	add	r2, r1, r2, asl #8
	str	r3, [r2, #8]
	bx	lr
.L63:
	.align	2
.L62:
	.word	.LANCHOR0
	.fnend
	.size	FlashProgDpFirstCmd, .-FlashProgDpFirstCmd
	.align	2
	.global	js_hash
	.type	js_hash, %function
js_hash:
	.fnstart
	@ args = 0, pretend = 0, frame = 0
	@ frame_needed = 0, uses_anonymous_args = 0
	mov	r3, r0
	mov	r2, #0
	stmfd	sp!, {r4, lr}
	.save {r4, lr}
	ldr	r0, .L67
	b	.L65
.L66:
	mov	ip, r0, asl #5
	ldrb	r4, [r3, r2]	@ zero_extendqisi2
	add	ip, ip, r0, lsr #2
	add	r2, r2, #1
	add	ip, ip, r4
	eor	r0, r0, ip
.L65:
	cmp	r2, r1
	bne	.L66
	ldmfd	sp!, {r4, pc}
.L68:
	.align	2
.L67:
	.word	1204201446
	.fnend
	.size	js_hash, .-js_hash
	.align	2
	.global	FlashLoadIdbInfo
	.type	FlashLoadIdbInfo, %function
FlashLoadIdbInfo:
	.fnstart
	@ args = 0, pretend = 0, frame = 0
	@ frame_needed = 0, uses_anonymous_args = 0
	@ link register save eliminated.
	mov	r0, #0
	bx	lr
	.fnend
	.size	FlashLoadIdbInfo, .-FlashLoadIdbInfo
	.align	2
	.global	FlashPrintInfo
	.type	FlashPrintInfo, %function
FlashPrintInfo:
	.fnstart
	@ args = 0, pretend = 0, frame = 0
	@ frame_needed = 0, uses_anonymous_args = 0
	@ link register save eliminated.
	bx	lr
	.fnend
	.size	FlashPrintInfo, .-FlashPrintInfo
	.align	2
	.global	FlashReadIdbData
	.type	FlashReadIdbData, %function
FlashReadIdbData:
	.fnstart
	@ args = 0, pretend = 0, frame = 0
	@ frame_needed = 0, uses_anonymous_args = 0
	stmfd	sp!, {r3, lr}
	.save {r3, lr}
	mov	r2, #2048
	ldr	r1, .L72
	bl	memcpy
	mov	r0, #0
	ldmfd	sp!, {r3, pc}
.L73:
	.align	2
.L72:
	.word	.LANCHOR0+928
	.fnend
	.size	FlashReadIdbData, .-FlashReadIdbData
	.align	2
	.global	FlashLoadPhyInfoInRam
	.type	FlashLoadPhyInfoInRam, %function
FlashLoadPhyInfoInRam:
	.fnstart
	@ args = 0, pretend = 0, frame = 0
	@ frame_needed = 0, uses_anonymous_args = 0
	stmfd	sp!, {r4, r5, r6, lr}
	.save {r4, r5, r6, lr}
	mov	r4, #0
	ldr	r6, .L86
.L78:
	add	r5, r6, r4, asl #5
	ldr	r1, .L86+4
	add	r0, r5, #1
	ldrb	r2, [r6, r4, asl #5]	@ zero_extendqisi2
	bl	FlashMemCmp8
	subs	r1, r0, #0
	bne	.L75
	cmp	r5, #0
	ldrneb	r2, [r5, #22]	@ zero_extendqisi2
	ldrne	r3, .L86+8
	bne	.L80
	b	.L85
.L75:
	add	r4, r4, #1
	cmp	r4, #81
	bne	.L78
	mvn	r0, #0
	ldmfd	sp!, {r4, r5, r6, pc}
.L80:
	ldrb	r0, [r3, r1, asl #5]	@ zero_extendqisi2
	cmp	r0, r2
	beq	.L79
	add	r1, r1, #1
	cmp	r1, #4
	bne	.L80
.L79:
	ldr	r3, .L86+8
	mov	r2, #32
	ldr	r0, .L86+12
	add	r1, r3, r1, asl #5
	bl	memcpy
	mov	r1, r5
	mov	r2, #32
	ldr	r0, .L86+16
	bl	memcpy
	ldr	r2, .L86+20
	movw	r3, #3126
	ldrh	r0, [r2, r3]
	bl	FlashBlockAlignInit
	mov	r0, #0
	ldmfd	sp!, {r4, r5, r6, pc}
.L85:
	mvn	r0, #0
	ldmfd	sp!, {r4, r5, r6, pc}
.L87:
	.align	2
.L86:
	.word	.LANCHOR1+396
	.word	.LANCHOR0+2976
	.word	.LANCHOR1+2988
	.word	.LANCHOR0+896
	.word	.LANCHOR1+3116
	.word	.LANCHOR1
	.fnend
	.size	FlashLoadPhyInfoInRam, .-FlashLoadPhyInfoInRam
	.align	2
	.global	ftl_flash_suspend
	.type	ftl_flash_suspend, %function
ftl_flash_suspend:
	.fnstart
	@ args = 0, pretend = 0, frame = 0
	@ frame_needed = 0, uses_anonymous_args = 0
	@ link register save eliminated.
	ldr	r3, .L89
	ldr	r2, [r3, #3008]
	ldr	r1, [r2, #0]
	str	r1, [r3, #3012]
	ldr	r1, [r2, #4]
	str	r1, [r3, #3016]
	ldr	r1, [r2, #8]
	str	r1, [r3, #3020]
	ldr	r1, [r2, #12]
	str	r1, [r3, #3024]
	ldr	r1, [r2, #304]
	str	r1, [r3, #3028]
	ldr	r1, [r2, #308]
	str	r1, [r3, #3032]
	ldr	r1, [r2, #336]
	ldr	r2, [r2, #344]
	str	r1, [r3, #3036]
	str	r2, [r3, #3040]
	bx	lr
.L90:
	.align	2
.L89:
	.word	.LANCHOR0
	.fnend
	.size	ftl_flash_suspend, .-ftl_flash_suspend
	.global	__aeabi_uidiv
	.align	2
	.global	LogAddr2PhyAddr
	.type	LogAddr2PhyAddr, %function
LogAddr2PhyAddr:
	.fnstart
	@ args = 4, pretend = 0, frame = 0
	@ frame_needed = 0, uses_anonymous_args = 0
	stmfd	sp!, {r3, r4, r5, r6, r7, r8, r9, sl, fp, lr}
	.save {r3, r4, r5, r6, r7, r8, r9, sl, fp, lr}
	mov	fp, r3
	ldr	r3, .L96
	mov	r5, r1
	mov	r6, r2
	movw	r1, #3058
	mov	r2, #3056
	ldr	r8, [r0, #4]
	ldrh	r2, [r3, r2]
	mov	r4, r0
	ldrh	sl, [r3, r1]
	bic	r8, r8, #-2147483648
	ldr	r7, [r3, #856]
	ubfx	r9, r8, #10, #16
	ldrb	r3, [r3, #852]	@ zero_extendqisi2
	mov	r8, r8, asl #22
	mul	sl, sl, r2
	uxth	r7, r7
	cmp	r3, #1
	mov	r0, r9
	moveq	r7, r7, asl #1
	mov	r8, r8, lsr #22
	uxtheq	r7, r7
	uxth	sl, sl
	mov	r1, sl
	bl	__aeabi_uidiv
	cmp	r5, #1
	ldr	r3, .L96
	uxth	r0, r0
	mls	sl, sl, r0, r9
	uxth	sl, sl
	bne	.L93
	ldrb	r2, [r3, #3072]	@ zero_extendqisi2
	cmp	r2, #0
	addeq	r8, r3, r8, asl #1
	movweq	r2, #3076
	ldreqh	r8, [r8, r2]
.L93:
	add	r3, r3, r0, asl #2
	ldr	r3, [r3, #3588]
	mla	r7, r7, sl, r3
	ldrb	r3, [sp, #40]	@ zero_extendqisi2
	cmp	r3, #1
	add	r8, r7, r8
	str	r8, [r6, #0]
	str	r0, [fp, #0]
	bls	.L95
	ldr	r0, [r4, #4]
	ldr	r3, [r4, #40]
	add	r0, r0, #1024
	rsb	r3, r3, r0
	rsbs	r0, r3, #0
	adc	r0, r0, r3
	ldmfd	sp!, {r3, r4, r5, r6, r7, r8, r9, sl, fp, pc}
.L95:
	mov	r0, #0
	ldmfd	sp!, {r3, r4, r5, r6, r7, r8, r9, sl, fp, pc}
.L97:
	.align	2
.L96:
	.word	.LANCHOR0
	.fnend
	.size	LogAddr2PhyAddr, .-LogAddr2PhyAddr
	.align	2
	.global	FlashScheduleEnSet
	.type	FlashScheduleEnSet, %function
FlashScheduleEnSet:
	.fnstart
	@ args = 0, pretend = 0, frame = 0
	@ frame_needed = 0, uses_anonymous_args = 0
	@ link register save eliminated.
	ldr	r3, .L99
	ldr	r2, [r3, #3620]
	str	r0, [r3, #3620]
	mov	r0, r2
	bx	lr
.L100:
	.align	2
.L99:
	.word	.LANCHOR0
	.fnend
	.size	FlashScheduleEnSet, .-FlashScheduleEnSet
	.align	2
	.global	FlashGetPageSize
	.type	FlashGetPageSize, %function
FlashGetPageSize:
	.fnstart
	@ args = 0, pretend = 0, frame = 0
	@ frame_needed = 0, uses_anonymous_args = 0
	@ link register save eliminated.
	ldr	r3, .L102
	ldr	r3, [r3, #3624]
	ldrb	r0, [r3, #9]	@ zero_extendqisi2
	bx	lr
.L103:
	.align	2
.L102:
	.word	.LANCHOR0
	.fnend
	.size	FlashGetPageSize, .-FlashGetPageSize
	.align	2
	.global	NandcReadDontCaseBusyEn
	.type	NandcReadDontCaseBusyEn, %function
NandcReadDontCaseBusyEn:
	.fnstart
	@ args = 0, pretend = 0, frame = 0
	@ frame_needed = 0, uses_anonymous_args = 0
	@ link register save eliminated.
	bx	lr
	.fnend
	.size	NandcReadDontCaseBusyEn, .-NandcReadDontCaseBusyEn
	.align	2
	.global	NandcGetChipIf
	.type	NandcGetChipIf, %function
NandcGetChipIf:
	.fnstart
	@ args = 0, pretend = 0, frame = 0
	@ frame_needed = 0, uses_anonymous_args = 0
	@ link register save eliminated.
	ldr	r3, .L106
	add	r3, r3, r0, asl #3
	ldrb	r0, [r3, #868]	@ zero_extendqisi2
	ldr	r2, [r3, #864]
	add	r0, r0, #8
	add	r0, r2, r0, asl #8
	bx	lr
.L107:
	.align	2
.L106:
	.word	.LANCHOR0
	.fnend
	.size	NandcGetChipIf, .-NandcGetChipIf
	.align	2
	.global	NandcSetDdrPara
	.type	NandcSetDdrPara, %function
NandcSetDdrPara:
	.fnstart
	@ args = 0, pretend = 0, frame = 0
	@ frame_needed = 0, uses_anonymous_args = 0
	@ link register save eliminated.
	ldr	r3, .L109
	mov	r2, r0, asl #8
	orr	r2, r2, r0, asl #16
	orr	r2, r2, #1
	ldr	r3, [r3, #3008]
	str	r2, [r3, #304]
	bx	lr
.L110:
	.align	2
.L109:
	.word	.LANCHOR0
	.fnend
	.size	NandcSetDdrPara, .-NandcSetDdrPara
	.align	2
	.global	NandcSetDdrDiv
	.type	NandcSetDdrDiv, %function
NandcSetDdrDiv:
	.fnstart
	@ args = 0, pretend = 0, frame = 0
	@ frame_needed = 0, uses_anonymous_args = 0
	@ link register save eliminated.
	ldr	r3, .L112
	orr	r0, r0, #16640
	ldr	r3, [r3, #3008]
	str	r0, [r3, #344]
	bx	lr
.L113:
	.align	2
.L112:
	.word	.LANCHOR0
	.fnend
	.size	NandcSetDdrDiv, .-NandcSetDdrDiv
	.align	2
	.global	NandcSetDdrMode
	.type	NandcSetDdrMode, %function
NandcSetDdrMode:
	.fnstart
	@ args = 0, pretend = 0, frame = 0
	@ frame_needed = 0, uses_anonymous_args = 0
	@ link register save eliminated.
	ldr	r3, .L116
	cmp	r0, #0
	ldr	r2, [r3, #3008]
	ldr	r3, [r2, #0]
	bfc	r3, #13, #1
	orrne	r3, r3, #253952
	str	r3, [r2, #0]
	bx	lr
.L117:
	.align	2
.L116:
	.word	.LANCHOR0
	.fnend
	.size	NandcSetDdrMode, .-NandcSetDdrMode
	.align	2
	.global	NandcSetMode
	.type	NandcSetMode, %function
NandcSetMode:
	.fnstart
	@ args = 0, pretend = 0, frame = 0
	@ frame_needed = 0, uses_anonymous_args = 0
	@ link register save eliminated.
	ldr	r3, .L122
	ands	r1, r0, #6
	ldr	r2, [r3, #3008]
	ldr	r3, [r2, #0]
	bfieq	r3, r1, #13, #1
	beq	.L121
	orr	r3, r3, #24576
	movw	r1, #16641
	bfc	r3, #15, #1
	str	r1, [r2, #344]
	orr	r3, r3, #196608
	ldr	r1, .L122+4
	tst	r0, #4
	orrne	r3, r3, #32768
	str	r1, [r2, #304]
	mov	r1, #38
	str	r1, [r2, #308]
	mov	r1, #39
	str	r1, [r2, #308]
.L121:
	str	r3, [r2, #0]
	mov	r0, #0
	bx	lr
.L123:
	.align	2
.L122:
	.word	.LANCHOR0
	.word	1710595
	.fnend
	.size	NandcSetMode, .-NandcSetMode
	.align	2
	.global	NandcFlashCs
	.type	NandcFlashCs, %function
NandcFlashCs:
	.fnstart
	@ args = 0, pretend = 0, frame = 0
	@ frame_needed = 0, uses_anonymous_args = 0
	@ link register save eliminated.
	ldr	r3, .L125
	add	r3, r3, r0, asl #3
	mov	r0, #1
	ldr	r2, [r3, #864]
	ldrb	r1, [r3, #868]	@ zero_extendqisi2
	ldr	r3, [r2, #0]
	mov	r1, r0, asl r1
	bfi	r3, r1, #0, #8
	str	r3, [r2, #0]
	bx	lr
.L126:
	.align	2
.L125:
	.word	.LANCHOR0
	.fnend
	.size	NandcFlashCs, .-NandcFlashCs
	.align	2
	.global	NandcFlashDeCs
	.type	NandcFlashDeCs, %function
NandcFlashDeCs:
	.fnstart
	@ args = 0, pretend = 0, frame = 0
	@ frame_needed = 0, uses_anonymous_args = 0
	@ link register save eliminated.
	ldr	r3, .L128
	add	r3, r3, r0, asl #3
	ldr	r2, [r3, #864]
	ldr	r3, [r2, #0]
	bfc	r3, #0, #8
	bfc	r3, #17, #1
	str	r3, [r2, #0]
	bx	lr
.L129:
	.align	2
.L128:
	.word	.LANCHOR0
	.fnend
	.size	NandcFlashDeCs, .-NandcFlashDeCs
	.align	2
	.global	NandcDelayns
	.type	NandcDelayns, %function
NandcDelayns:
	.fnstart
	@ args = 0, pretend = 0, frame = 0
	@ frame_needed = 0, uses_anonymous_args = 0
	add	r0, r0, #996
	mov	r1, #1000
	stmfd	sp!, {r3, lr}
	.save {r3, lr}
	add	r0, r0, #3
	bl	__aeabi_uidiv
	ldr	r3, .L131
	ldr	r3, [r3, #8]
	blx	r3
	mov	r0, #0
	ldmfd	sp!, {r3, pc}
.L132:
	.align	2
.L131:
	.word	arm_delay_ops
	.fnend
	.size	NandcDelayns, .-NandcDelayns
	.align	2
	.type	flash_read_ecc, %function
flash_read_ecc:
	.fnstart
	@ args = 0, pretend = 0, frame = 0
	@ frame_needed = 0, uses_anonymous_args = 0
	stmfd	sp!, {r3, r4, r5, lr}
	.save {r3, r4, r5, lr}
	mov	r2, #122
	ldr	r3, .L134
	add	r3, r3, r0, asl #3
	mov	r0, #80
	ldrb	r5, [r3, #868]	@ zero_extendqisi2
	ldr	r4, [r3, #864]
	add	r5, r5, #8
	add	r3, r4, r5, asl #8
	str	r2, [r3, #8]
	bl	NandcDelayns
	ldr	r3, [r4, r5, asl #8]
	ldr	r0, [r4, r5, asl #8]
	and	r3, r3, #15
	and	r0, r0, #15
	cmp	r0, r3
	movcc	r0, r3
	ldr	r3, [r4, r5, asl #8]
	and	r3, r3, #15
	cmp	r0, r3
	movcc	r0, r3
	ldr	r3, [r4, r5, asl #8]
	and	r3, r3, #15
	cmp	r0, r3
	movcc	r0, r3
	ldmfd	sp!, {r3, r4, r5, pc}
.L135:
	.align	2
.L134:
	.word	.LANCHOR0
	.fnend
	.size	flash_read_ecc, .-flash_read_ecc
	.align	2
	.global	FlashReadStatusEN
	.type	FlashReadStatusEN, %function
FlashReadStatusEN:
	.fnstart
	@ args = 0, pretend = 0, frame = 0
	@ frame_needed = 0, uses_anonymous_args = 0
	stmfd	sp!, {r3, r4, r5, lr}
	.save {r3, r4, r5, lr}
	ldr	r3, .L145
	add	r0, r3, r0, asl #3
	ldr	ip, [r3, #3624]
	ldrb	r5, [r0, #868]	@ zero_extendqisi2
	ldr	r4, [r0, #864]
	ldrb	ip, [ip, #8]	@ zero_extendqisi2
	add	r5, r5, #8
	cmp	ip, #2
	add	r0, r4, r5, asl #8
	movne	r3, #112
	strne	r3, [r0, #8]
	bne	.L141
	cmp	r2, #0
	ldreqb	r2, [r3, #909]	@ zero_extendqisi2
	ldrneb	r2, [r3, #910]	@ zero_extendqisi2
	str	r2, [r0, #8]
	ldrb	r3, [r3, #911]	@ zero_extendqisi2
	cmp	r3, #0
	movne	r3, #0
	ldrne	r2, .L145
	bne	.L140
	b	.L141
.L142:
	mov	ip, r3, asl #3
	add	r3, r3, #1
	mov	ip, r1, lsr ip
	uxtb	ip, ip
	str	ip, [r0, #4]
.L140:
	ldrb	ip, [r2, #911]	@ zero_extendqisi2
	cmp	r3, ip
	bcc	.L142
.L141:
	mov	r0, #80
	bl	NandcDelayns
	ldr	r0, [r4, r5, asl #8]
	uxtb	r0, r0
	ldmfd	sp!, {r3, r4, r5, pc}
.L146:
	.align	2
.L145:
	.word	.LANCHOR0
	.fnend
	.size	FlashReadStatusEN, .-FlashReadStatusEN
	.align	2
	.global	FlashWaitReadyEN
	.type	FlashWaitReadyEN, %function
FlashWaitReadyEN:
	.fnstart
	@ args = 0, pretend = 0, frame = 0
	@ frame_needed = 0, uses_anonymous_args = 0
	stmfd	sp!, {r4, r5, r6, lr}
	.save {r4, r5, r6, lr}
	mov	r6, r0
	mov	r5, r1
	mov	r4, r2
.L151:
	mov	r0, r6
	mov	r1, r5
	mov	r2, r4
	bl	FlashReadStatusEN
	cmp	r0, #255
	beq	.L151
	tst	r0, #64
	beq	.L151
	ldmfd	sp!, {r4, r5, r6, pc}
	.fnend
	.size	FlashWaitReadyEN, .-FlashWaitReadyEN
	.align	2
	.global	FlashWaitCmdDone
	.type	FlashWaitCmdDone, %function
FlashWaitCmdDone:
	.fnstart
	@ args = 0, pretend = 0, frame = 0
	@ frame_needed = 0, uses_anonymous_args = 0
	ldr	r3, .L155
	stmfd	sp!, {r4, r5, r6, lr}
	.save {r4, r5, r6, lr}
	add	r4, r3, r0, asl #4
	ldrb	r5, [r3, r0, asl #4]	@ zero_extendqisi2
	mov	r6, r0
	ldr	r3, [r4, #8]
	cmp	r3, #0
	beq	.L153
	mov	r0, r5
	bl	NandcFlashCs
	ldr	r3, .L155+4
	ldr	r1, [r4, #4]
	mov	r0, r5
	add	r6, r3, r6, asl #2
	ldr	r2, [r6, #3588]
	adds	r2, r2, #0
	movne	r2, #1
	bl	FlashWaitReadyEN
	mov	r6, r0
	mov	r0, r5
	bl	NandcFlashDeCs
	ldr	r3, [r4, #8]
	ands	r6, r6, #1
	mvnne	r6, #0
	str	r6, [r3, #0]
	ldr	r2, [r4, #12]
	mov	r3, #0
	str	r3, [r4, #8]
	cmp	r2, r3
	strne	r6, [r2, #0]
	strne	r3, [r4, #12]
.L153:
	mov	r0, #0
	ldmfd	sp!, {r4, r5, r6, pc}
.L156:
	.align	2
.L155:
	.word	.LANCHOR0+3628
	.word	.LANCHOR0
	.fnend
	.size	FlashWaitCmdDone, .-FlashWaitCmdDone
	.align	2
	.global	HynixSetRRPara
	.type	HynixSetRRPara, %function
HynixSetRRPara:
	.fnstart
	@ args = 0, pretend = 0, frame = 0
	@ frame_needed = 0, uses_anonymous_args = 0
	stmfd	sp!, {r4, r5, r6, r7, r8, r9, sl, lr}
	.save {r4, r5, r6, r7, r8, r9, sl, lr}
	mov	r7, r3
	ldr	r9, .L164
	mov	r4, r0
	mov	r5, r1
	mov	r6, r2
	ldr	r3, [r9, #3624]
	ldrb	r3, [r3, #19]	@ zero_extendqisi2
	cmp	r3, #6
	addeq	r9, r9, #20
	addeq	r9, r9, r0, asl #6
	addeq	r9, r9, r7, asl #2
	beq	.L159
	cmp	r3, #7
	bne	.L160
	add	r9, r9, #28
	mov	r3, #160
	mla	r9, r3, r0, r9
	mov	r3, #10
	mla	r9, r3, r7, r9
	b	.L159
.L160:
	cmp	r3, #8
	addne	r3, r7, r0, asl #3
	addeq	r9, r9, #28
	addeq	r3, r7, r7, asl #2
	addne	r9, r9, #20
	addeq	r9, r9, r3
	addne	r9, r9, r3, asl #3
.L159:
	ldr	r3, .L164
	mov	r0, r4
	mov	r8, #0
	add	r3, r3, r4, asl #3
	ldrb	sl, [r3, #868]	@ zero_extendqisi2
	ldr	r2, [r3, #864]
	add	sl, sl, #8
	add	sl, r2, sl, asl #8
	bl	NandcFlashCs
	mov	r3, #54
	str	r3, [sl, #8]
	b	.L162
.L163:
	ldrb	r3, [r6, r8]	@ zero_extendqisi2
	mov	r0, #200
	str	r3, [sl, #4]
	bl	NandcDelayns
	ldrsb	r3, [r9, r8]
	add	r8, r8, #1
	str	r3, [sl, #0]
.L162:
	uxtb	r3, r8
	cmp	r3, r5
	bcc	.L163
	mov	r3, #22
	mov	r0, r4
	str	r3, [sl, #8]
	bl	NandcFlashDeCs
	ldr	r3, .L164
	add	r4, r3, r4
	strb	r7, [r4, #3756]
	ldmfd	sp!, {r4, r5, r6, r7, r8, r9, sl, pc}
.L165:
	.align	2
.L164:
	.word	.LANCHOR0
	.fnend
	.size	HynixSetRRPara, .-HynixSetRRPara
	.align	2
	.global	FlashSetReadRetryDefault
	.type	FlashSetReadRetryDefault, %function
FlashSetReadRetryDefault:
	.fnstart
	@ args = 0, pretend = 0, frame = 0
	@ frame_needed = 0, uses_anonymous_args = 0
	stmfd	sp!, {r3, r4, r5, lr}
	.save {r3, r4, r5, lr}
	ldr	r5, .L171
	ldr	r3, [r5, #3624]
	ldrb	r3, [r3, #19]	@ zero_extendqisi2
	sub	r3, r3, #1
	uxtb	r3, r3
	cmp	r3, #7
	ldmhifd	sp!, {r3, r4, r5, pc}
	mov	r4, #0
.L169:
	ldr	r3, .L171+4
	uxtb	r0, r4
	ldrb	r3, [r3, r4, asl #3]	@ zero_extendqisi2
	cmp	r3, #173
	bne	.L168
	ldrb	r1, [r5, #1]	@ zero_extendqisi2
	mov	r3, #0
	ldr	r2, .L171+8
	bl	HynixSetRRPara
.L168:
	add	r4, r4, #1
	cmp	r4, #4
	bne	.L169
	ldmfd	sp!, {r3, r4, r5, pc}
.L172:
	.align	2
.L171:
	.word	.LANCHOR0
	.word	.LANCHOR0+2976
	.word	.LANCHOR0+4
	.fnend
	.size	FlashSetReadRetryDefault, .-FlashSetReadRetryDefault
	.align	2
	.global	SamsungSetRRPara
	.type	SamsungSetRRPara, %function
SamsungSetRRPara:
	.fnstart
	@ args = 0, pretend = 0, frame = 0
	@ frame_needed = 0, uses_anonymous_args = 0
	stmfd	sp!, {r3, r4, r5, r6, r7, r8, sl, lr}
	.save {r3, r4, r5, r6, r7, r8, sl, lr}
	mov	r4, r0
	ldr	r3, .L176
	mov	r5, #0
	ldr	sl, .L176+4
	mov	r8, #161
	add	r1, r3, r1, asl #2
	add	r6, r1, #3
	mov	r7, r3
	b	.L174
.L175:
	str	r8, [r4, #8]
	mov	r3, #0
	str	r3, [r4, #0]
	mov	r0, #300
	ldrsb	r3, [r5, r7]
	add	r5, r5, #1
	str	r3, [r4, #0]
	ldrsb	r3, [r6, #1]!
	str	r3, [r4, #0]
	bl	NandcDelayns
.L174:
	ldrb	r3, [sl, #3760]	@ zero_extendqisi2
	cmp	r5, r3
	bcc	.L175
	ldmfd	sp!, {r3, r4, r5, r6, r7, r8, sl, pc}
.L177:
	.align	2
.L176:
	.word	.LANCHOR1+3148
	.word	.LANCHOR0
	.fnend
	.size	SamsungSetRRPara, .-SamsungSetRRPara
	.align	2
	.global	ToshibaSetRRPara
	.type	ToshibaSetRRPara, %function
ToshibaSetRRPara:
	.fnstart
	@ args = 0, pretend = 0, frame = 0
	@ frame_needed = 0, uses_anonymous_args = 0
	stmfd	sp!, {r4, r5, r6, r7, r8, r9, sl, lr}
	.save {r4, r5, r6, r7, r8, r9, sl, lr}
	add	r6, r1, #1
	ldr	r8, .L185
	mov	r4, r0
	add	r6, r6, r6, asl #2
	mov	r5, #0
	add	r3, r8, #45
	add	r7, r8, r6
	ldr	sl, .L185+4
	add	r6, r3, r6
	add	r9, r8, r1
	b	.L179
.L183:
	mov	r3, #85
	str	r3, [r4, #8]
	ldrsb	r3, [r5, r8]
	mov	r0, #200
	str	r3, [r4, #4]
	bl	NandcDelayns
	ldrb	r3, [sl, #3761]	@ zero_extendqisi2
	cmp	r3, #34
	ldreqsb	r3, [r7, #0]
	beq	.L184
	cmp	r3, #35
	addne	r3, r9, #3200
	addne	r3, r3, #12
	ldreqsb	r3, [r6, #0]
	ldrnesb	r3, [r3, #0]
.L184:
	add	r5, r5, #1
	add	r7, r7, #1
	add	r6, r6, #1
	str	r3, [r4, #0]
.L179:
	ldrb	r3, [sl, #3760]	@ zero_extendqisi2
	cmp	r5, r3
	bcc	.L183
	ldmfd	sp!, {r4, r5, r6, r7, r8, r9, sl, pc}
.L186:
	.align	2
.L185:
	.word	.LANCHOR1
	.word	.LANCHOR0
	.fnend
	.size	ToshibaSetRRPara, .-ToshibaSetRRPara
	.align	2
	.global	FlashReadStatus
	.type	FlashReadStatus, %function
FlashReadStatus:
	.fnstart
	@ args = 0, pretend = 0, frame = 0
	@ frame_needed = 0, uses_anonymous_args = 0
	stmfd	sp!, {r3, r4, r5, lr}
	.save {r3, r4, r5, lr}
	mov	r2, #112
	ldr	r3, .L188
	add	r3, r3, r0, asl #3
	mov	r0, #80
	ldrb	r5, [r3, #868]	@ zero_extendqisi2
	ldr	r4, [r3, #864]
	add	r5, r5, #8
	add	r3, r4, r5, asl #8
	str	r2, [r3, #8]
	bl	NandcDelayns
	ldr	r0, [r4, r5, asl #8]
	ldmfd	sp!, {r3, r4, r5, pc}
.L189:
	.align	2
.L188:
	.word	.LANCHOR0
	.fnend
	.size	FlashReadStatus, .-FlashReadStatus
	.align	2
	.global	NandcWaitFlashReadyNoDelay
	.type	NandcWaitFlashReadyNoDelay, %function
NandcWaitFlashReadyNoDelay:
	.fnstart
	@ args = 0, pretend = 0, frame = 8
	@ frame_needed = 0, uses_anonymous_args = 0
	ldr	r3, .L195
	stmfd	sp!, {r0, r1, r2, r4, r5, lr}
	.save {r0, r1, r2, r4, r5, lr}
	add	r3, r3, r0, asl #3
	ldr	r4, .L195+4
	ldr	r5, [r3, #864]
.L192:
	ldr	r3, [r5, #0]
	str	r3, [sp, #4]
	ldr	r3, [sp, #4]
	tst	r3, #512
	bne	.L193
	mov	r0, #10
	bl	NandcDelayns
	subs	r4, r4, #1
	bne	.L192
	mvn	r0, #0
	b	.L191
.L193:
	mov	r0, #0
.L191:
	ldmfd	sp!, {r1, r2, r3, r4, r5, pc}
.L196:
	.align	2
.L195:
	.word	.LANCHOR0
	.word	100000
	.fnend
	.size	NandcWaitFlashReadyNoDelay, .-NandcWaitFlashReadyNoDelay
	.align	2
	.global	NandcWaitFlashReady
	.type	NandcWaitFlashReady, %function
NandcWaitFlashReady:
	.fnstart
	@ args = 0, pretend = 0, frame = 8
	@ frame_needed = 0, uses_anonymous_args = 0
	ldr	r3, .L202
	stmfd	sp!, {r0, r1, r2, r4, r5, lr}
	.save {r0, r1, r2, r4, r5, lr}
	add	r3, r3, r0, asl #3
	mov	r0, #150
	ldr	r4, .L202+4
	ldr	r5, [r3, #864]
	bl	NandcDelayns
.L199:
	ldr	r3, [r5, #0]
	str	r3, [sp, #4]
	ldr	r3, [sp, #4]
	tst	r3, #512
	bne	.L200
	mov	r0, #10
	bl	NandcDelayns
	subs	r4, r4, #1
	bne	.L199
	mvn	r0, #0
	b	.L198
.L200:
	mov	r0, #0
.L198:
	ldmfd	sp!, {r1, r2, r3, r4, r5, pc}
.L203:
	.align	2
.L202:
	.word	.LANCHOR0
	.word	100000
	.fnend
	.size	NandcWaitFlashReady, .-NandcWaitFlashReady
	.align	2
	.global	FlashEraseSLc2KBlocks
	.type	FlashEraseSLc2KBlocks, %function
FlashEraseSLc2KBlocks:
	.fnstart
	@ args = 0, pretend = 0, frame = 8
	@ frame_needed = 0, uses_anonymous_args = 0
	stmfd	sp!, {r4, r5, r6, r7, r8, sl, lr}
	.save {r4, r5, r6, r7, r8, sl, lr}
	mov	r6, #0
	.pad #20
	sub	sp, sp, #20
	mov	r8, r1
	mov	r4, r0
	mov	r7, r6
	ldr	r5, .L212
	b	.L205
.L211:
	add	r3, r6, r8
	add	r2, sp, #8
	mov	r0, r4
	mov	r1, #0
	uxtb	r3, r3
	str	r3, [sp, #0]
	add	r3, sp, #12
	bl	LogAddr2PhyAddr
	ldr	r3, [sp, #12]
	ldrb	r2, [r5, #3762]	@ zero_extendqisi2
	cmp	r3, r2
	mvncs	r3, #0
	strcs	r3, [r4, #0]
	bcs	.L207
	add	r2, r5, r3
	add	r3, r5, r3, asl #4
	ldrb	sl, [r2, #3764]	@ zero_extendqisi2
	strb	sl, [r3, #3628]
	mov	r0, sl
	bl	NandcWaitFlashReady
	mov	r0, sl
	bl	NandcFlashCs
	mov	r2, #0
	ldr	r1, [sp, #8]
	mov	r0, sl
	bl	FlashEraseCmd
	mov	r0, sl
	bl	NandcWaitFlashReady
	ldr	r1, [sp, #8]
	mov	r0, sl
	bl	FlashReadStatus
	ldr	r3, [sp, #8]
	mov	r2, #0
	ands	r0, r0, #1
	mvnne	r0, #0
	str	r0, [r4, #0]
	ldr	r1, [r5, #856]
	mov	r0, sl
	add	r1, r1, r3
	bl	FlashEraseCmd
	mov	r0, sl
	bl	NandcWaitFlashReady
	mov	r0, sl
	ldr	r1, [sp, #8]
	bl	FlashReadStatus
	tst	r0, #1
	mvnne	r3, #0
	strne	r3, [r4, #0]
	ldr	r3, [r4, #0]
	cmn	r3, #1
	bne	.L210
	ldr	r0, .L212+4
	ldr	r1, [sp, #8]
	bl	printk
.L210:
	mov	r0, sl
	bl	NandcFlashDeCs
.L207:
	sub	r6, r6, #1
	add	r7, r7, #1
	add	r4, r4, #36
	uxtb	r6, r6
.L205:
	cmp	r7, r8
	bne	.L211
	mov	r0, #0
	add	sp, sp, #20
	ldmfd	sp!, {r4, r5, r6, r7, r8, sl, pc}
.L213:
	.align	2
.L212:
	.word	.LANCHOR0
	.word	.LC1
	.fnend
	.size	FlashEraseSLc2KBlocks, .-FlashEraseSLc2KBlocks
	.align	2
	.global	micron_auto_read_calibration_config
	.type	micron_auto_read_calibration_config, %function
micron_auto_read_calibration_config:
	.fnstart
	@ args = 0, pretend = 0, frame = 0
	@ frame_needed = 0, uses_anonymous_args = 0
	stmfd	sp!, {r4, r5, r6, lr}
	.save {r4, r5, r6, lr}
	mov	r6, r1
	mov	r4, r0
	bl	NandcWaitFlashReady
	ldr	r3, .L215
	mov	r2, #239
	mov	r0, #200
	add	r4, r3, r4, asl #3
	ldr	r5, [r4, #864]
	ldrb	r4, [r4, #868]	@ zero_extendqisi2
	add	r4, r4, #8
	add	r3, r5, r4, asl #8
	str	r2, [r3, #8]
	mov	r2, #150
	str	r2, [r3, #4]
	bl	NandcDelayns
	str	r6, [r5, r4, asl #8]
	mov	r3, #0
	str	r3, [r5, r4, asl #8]
	str	r3, [r5, r4, asl #8]
	str	r3, [r5, r4, asl #8]
	ldmfd	sp!, {r4, r5, r6, pc}
.L216:
	.align	2
.L215:
	.word	.LANCHOR0
	.fnend
	.size	micron_auto_read_calibration_config, .-micron_auto_read_calibration_config
	.align	2
	.global	SandiskSetRRPara
	.type	SandiskSetRRPara, %function
SandiskSetRRPara:
	.fnstart
	@ args = 0, pretend = 0, frame = 0
	@ frame_needed = 0, uses_anonymous_args = 0
	stmfd	sp!, {r4, r5, r6, lr}
	.save {r4, r5, r6, lr}
	mov	r3, #239
	mov	r4, r0
	str	r3, [r0, #8]
	mov	r3, #17
	str	r3, [r0, #4]
	mov	r0, #200
	mov	r5, r1
	bl	NandcDelayns
	ldr	r1, .L223
	add	r3, r5, r5, asl #2
	mvn	r6, #4
	add	r0, r1, r3
	add	r1, r1, #45
	add	r1, r1, r3
	mov	r2, #0
	ldr	ip, .L223+4
	mul	r5, r6, r5
	b	.L218
.L221:
	ldrb	r6, [ip, #3761]	@ zero_extendqisi2
	add	r2, r2, #1
	cmp	r6, #67
	addeq	r6, r0, r5
	addne	r6, r1, r5
	add	r6, r6, r3
	add	r0, r0, #1
	add	r1, r1, #1
	ldrsb	r6, [r6, #5]
	str	r6, [r4, #0]
.L218:
	ldrb	r6, [ip, #3760]	@ zero_extendqisi2
	cmp	r2, r6
	bcc	.L221
	mov	r0, #0
	ldmfd	sp!, {r4, r5, r6, lr}
	b	NandcWaitFlashReady
.L224:
	.align	2
.L223:
	.word	.LANCHOR1
	.word	.LANCHOR0
	.fnend
	.size	SandiskSetRRPara, .-SandiskSetRRPara
	.align	2
	.global	SandiskProgTestBadBlock
	.type	SandiskProgTestBadBlock, %function
SandiskProgTestBadBlock:
	.fnstart
	@ args = 0, pretend = 0, frame = 0
	@ frame_needed = 0, uses_anonymous_args = 0
	ldr	r3, .L226
	stmfd	sp!, {r4, r5, r6, lr}
	.save {r4, r5, r6, lr}
	add	r3, r3, r0, asl #3
	ldrb	r6, [r3, #868]	@ zero_extendqisi2
	ldr	r5, [r3, #864]
	mov	r3, #162
	add	r6, r6, #8
	add	r4, r5, r6, asl #8
	str	r3, [r4, #8]
	mov	r3, #128
	str	r3, [r4, #8]
	mov	r3, #0
	str	r3, [r4, #4]
	str	r3, [r4, #4]
	uxtb	r3, r1
	str	r3, [r4, #4]
	mov	r3, r1, lsr #8
	mov	r1, r1, lsr #16
	str	r3, [r4, #4]
	str	r1, [r4, #4]
	mov	r3, #16
	str	r3, [r4, #8]
	bl	NandcWaitFlashReady
	mov	r3, #112
	mov	r0, #80
	str	r3, [r4, #8]
	bl	NandcDelayns
	ldr	r0, [r5, r6, asl #8]
	and	r0, r0, #1
	ldmfd	sp!, {r4, r5, r6, pc}
.L227:
	.align	2
.L226:
	.word	.LANCHOR0
	.fnend
	.size	SandiskProgTestBadBlock, .-SandiskProgTestBadBlock
	.align	2
	.global	FlashReadSpare
	.type	FlashReadSpare, %function
FlashReadSpare:
	.fnstart
	@ args = 0, pretend = 0, frame = 0
	@ frame_needed = 0, uses_anonymous_args = 0
	ldr	r3, .L229
	mov	ip, #0
	stmfd	sp!, {r4, r5, r6, lr}
	.save {r4, r5, r6, lr}
	mov	r6, r2
	ldrb	r2, [r3, #3125]	@ zero_extendqisi2
	ldr	r3, .L229+4
	add	r3, r3, r0, asl #3
	mov	r2, r2, asl #9
	ldrb	r5, [r3, #868]	@ zero_extendqisi2
	ldr	r4, [r3, #864]
	add	r5, r5, #8
	add	r3, r4, r5, asl #8
	str	ip, [r3, #8]
	str	r2, [r3, #4]
	mov	r2, r2, lsr #8
	str	r2, [r3, #4]
	uxtb	r2, r1
	str	r2, [r3, #4]
	mov	r2, r1, lsr #8
	mov	r1, r1, lsr #16
	str	r2, [r3, #4]
	str	r1, [r3, #4]
	mov	r2, #48
	str	r2, [r3, #8]
	bl	NandcWaitFlashReady
	ldr	r3, [r4, r5, asl #8]
	strb	r3, [r6, #0]
	ldmfd	sp!, {r4, r5, r6, pc}
.L230:
	.align	2
.L229:
	.word	.LANCHOR1
	.word	.LANCHOR0
	.fnend
	.size	FlashReadSpare, .-FlashReadSpare
	.align	2
	.global	FlashSetInterfaceMode
	.type	FlashSetInterfaceMode, %function
FlashSetInterfaceMode:
	.fnstart
	@ args = 0, pretend = 0, frame = 0
	@ frame_needed = 0, uses_anonymous_args = 0
	stmfd	sp!, {r3, r4, r5, r6, r7, r8, r9, sl, fp, lr}
	.save {r3, r4, r5, r6, r7, r8, r9, sl, fp, lr}
	mov	r4, #0
	ldr	sl, .L245
	mov	r7, #239
	mov	r1, r4
	mov	r6, #128
	sub	r8, sl, #864
	mov	r5, #1
	mov	r9, #35
.L241:
	mov	r2, sl
	ldr	lr, .L245+4
	ldr	r3, [r2, r4]!
	ldrb	lr, [r4, lr]	@ zero_extendqisi2
	ldrb	r2, [r2, #4]	@ zero_extendqisi2
	cmp	lr, #152
	cmpne	lr, #69
	add	r2, r2, #8
	add	ip, r3, r2, asl #8
	beq	.L232
	cmp	lr, #173
	cmpne	lr, #44
	bne	.L233
.L232:
	cmp	r0, #1
	ldrb	fp, [r8, #3772]	@ zero_extendqisi2
	bne	.L234
	tst	fp, #1
	beq	.L233
	cmp	lr, #173
	str	r7, [ip, #8]
	streq	r0, [ip, #4]
	beq	.L243
	cmp	lr, #44
	streq	r0, [ip, #4]
	strne	r6, [ip, #4]
	moveq	ip, #5
	strne	r0, [r3, r2, asl #8]
	bne	.L239
	b	.L244
.L234:
	tst	fp, #4
	beq	.L233
	cmp	lr, #173
	str	r7, [ip, #8]
	bne	.L238
	str	r5, [ip, #4]
	mov	ip, #32
.L244:
	str	ip, [r3, r2, asl #8]
	b	.L239
.L238:
	cmp	lr, #44
	streq	r5, [ip, #4]
	streq	r9, [r3, r2, asl #8]
	beq	.L239
	str	r6, [ip, #4]
.L243:
	str	r1, [r3, r2, asl #8]
.L239:
	str	r1, [r3, r2, asl #8]
	str	r1, [r3, r2, asl #8]
	str	r1, [r3, r2, asl #8]
.L233:
	add	r4, r4, #8
	cmp	r4, #32
	bne	.L241
	mov	r0, #0
	bl	NandcWaitFlashReady
	mov	r0, #0
	ldmfd	sp!, {r3, r4, r5, r6, r7, r8, r9, sl, fp, pc}
.L246:
	.align	2
.L245:
	.word	.LANCHOR0+864
	.word	.LANCHOR0+2976
	.fnend
	.size	FlashSetInterfaceMode, .-FlashSetInterfaceMode
	.align	2
	.global	FlashEraseBlock
	.type	FlashEraseBlock, %function
FlashEraseBlock:
	.fnstart
	@ args = 0, pretend = 0, frame = 0
	@ frame_needed = 0, uses_anonymous_args = 0
	stmfd	sp!, {r4, r5, r6, lr}
	.save {r4, r5, r6, lr}
	mov	r4, r0
	mov	r5, r1
	mov	r6, r2
	bl	NandcWaitFlashReady
	mov	r0, r4
	bl	NandcFlashCs
	mov	r2, r6
	mov	r1, r5
	mov	r0, r4
	bl	FlashEraseCmd
	mov	r0, r4
	bl	NandcWaitFlashReady
	mov	r1, r5
	mov	r0, r4
	bl	FlashReadStatus
	mov	r5, r0
	mov	r0, r4
	bl	NandcFlashDeCs
	and	r0, r5, #1
	ldmfd	sp!, {r4, r5, r6, pc}
	.fnend
	.size	FlashEraseBlock, .-FlashEraseBlock
	.align	2
	.global	flash_exit_slc_mode
	.type	flash_exit_slc_mode, %function
flash_exit_slc_mode:
	.fnstart
	@ args = 0, pretend = 0, frame = 0
	@ frame_needed = 0, uses_anonymous_args = 0
	stmfd	sp!, {r3, r4, r5, r6, r7, lr}
	.save {r3, r4, r5, r6, r7, lr}
	mov	r6, r0
	ldr	r4, .L250
	ldrb	r3, [r4, #3072]	@ zero_extendqisi2
	cmp	r3, #0
	ldmeqfd	sp!, {r3, r4, r5, r6, r7, pc}
	bl	NandcFlashCs
	add	r3, r4, r6, asl #3
	mov	r0, #100
	ldrb	r5, [r3, #868]	@ zero_extendqisi2
	ldr	r4, [r3, #864]
	mov	r3, #239
	add	r5, r5, #8
	add	r7, r4, r5, asl #8
	str	r3, [r7, #8]
	mov	r3, #145
	str	r3, [r7, #4]
	bl	NandcDelayns
	mov	r3, #2
	mov	r0, #100
	str	r3, [r4, r5, asl #8]
	mov	r3, #1
	str	r3, [r4, r5, asl #8]
	mov	r3, #0
	str	r3, [r4, r5, asl #8]
	str	r3, [r4, r5, asl #8]
	bl	NandcDelayns
	mov	r0, r6
	bl	NandcWaitFlashReadyNoDelay
	mov	r3, #223
	mov	r0, r6
	str	r3, [r7, #8]
	ldmfd	sp!, {r3, r4, r5, r6, r7, lr}
	b	NandcWaitFlashReady
.L251:
	.align	2
.L250:
	.word	.LANCHOR0
	.fnend
	.size	flash_exit_slc_mode, .-flash_exit_slc_mode
	.align	2
	.global	flash_enter_slc_mode
	.type	flash_enter_slc_mode, %function
flash_enter_slc_mode:
	.fnstart
	@ args = 0, pretend = 0, frame = 0
	@ frame_needed = 0, uses_anonymous_args = 0
	stmfd	sp!, {r3, r4, r5, r6, r7, lr}
	.save {r3, r4, r5, r6, r7, lr}
	mov	r6, r0
	ldr	r4, .L254
	ldrb	r3, [r4, #3072]	@ zero_extendqisi2
	cmp	r3, #0
	ldmeqfd	sp!, {r3, r4, r5, r6, r7, pc}
	bl	NandcFlashCs
	add	r3, r4, r6, asl #3
	mov	r0, #100
	ldrb	r5, [r3, #868]	@ zero_extendqisi2
	ldr	r4, [r3, #864]
	mov	r3, #239
	add	r5, r5, #8
	add	r7, r4, r5, asl #8
	str	r3, [r7, #8]
	mov	r3, #145
	str	r3, [r7, #4]
	bl	NandcDelayns
	mov	r3, #0
	mov	r2, #1
	str	r3, [r4, r5, asl #8]
	mov	r0, #100
	str	r2, [r4, r5, asl #8]
	str	r3, [r4, r5, asl #8]
	str	r3, [r4, r5, asl #8]
	bl	NandcDelayns
	mov	r0, r6
	bl	NandcWaitFlashReadyNoDelay
	mov	r3, #218
	mov	r0, r6
	str	r3, [r7, #8]
	ldmfd	sp!, {r3, r4, r5, r6, r7, lr}
	b	NandcWaitFlashReady
.L255:
	.align	2
.L254:
	.word	.LANCHOR0
	.fnend
	.size	flash_enter_slc_mode, .-flash_enter_slc_mode
	.align	2
	.global	FlashReset
	.type	FlashReset, %function
FlashReset:
	.fnstart
	@ args = 0, pretend = 0, frame = 0
	@ frame_needed = 0, uses_anonymous_args = 0
	stmfd	sp!, {r3, r4, r5, lr}
	.save {r3, r4, r5, lr}
	mov	r4, r0
	ldr	r3, .L257
	add	r3, r3, r0, asl #3
	ldrb	r5, [r3, #868]	@ zero_extendqisi2
	ldr	r2, [r3, #864]
	add	r5, r5, #8
	add	r5, r2, r5, asl #8
	bl	NandcFlashCs
	mov	r3, #255
	mov	r0, r4
	str	r3, [r5, #8]
	bl	NandcWaitFlashReady
	mov	r0, r4
	ldmfd	sp!, {r3, r4, r5, lr}
	b	NandcFlashDeCs
.L258:
	.align	2
.L257:
	.word	.LANCHOR0
	.fnend
	.size	FlashReset, .-FlashReset
	.align	2
	.type	FlashReadIDRaw, %function
FlashReadIDRaw:
	.fnstart
	@ args = 0, pretend = 0, frame = 0
	@ frame_needed = 0, uses_anonymous_args = 0
	ldr	r3, .L262
	stmfd	sp!, {r4, r5, r6, r7, r8, sl, lr}
	.save {r4, r5, r6, r7, r8, sl, lr}
	add	r3, r3, r0, asl #3
	.pad #20
	sub	sp, sp, #20
	mov	r4, r0
	ldrb	r7, [r3, #868]	@ zero_extendqisi2
	mov	r5, r1
	ldr	r6, [r3, #864]
	bl	FlashReset
	add	r7, r7, #8
	mov	r0, r4
	bl	NandcFlashCs
	mov	r8, #0
	add	sl, r6, r7, asl #8
	mov	r3, #144
	mov	r0, #200
	str	r3, [sl, #8]
	str	r8, [sl, #4]
	bl	NandcDelayns
	ldr	r3, [r6, r7, asl #8]
	uxtb	r3, r3
	strb	r3, [r5, #0]
	ldr	r2, [r6, r7, asl #8]
	cmp	r3, #44
	strb	r2, [r5, #1]
	ldr	r2, [r6, r7, asl #8]
	strb	r2, [r5, #2]
	ldr	r2, [r6, r7, asl #8]
	strb	r2, [r5, #3]
	ldr	r2, [r6, r7, asl #8]
	strb	r2, [r5, #4]
	ldr	r2, [r6, r7, asl #8]
	strb	r2, [r5, #5]
	bne	.L260
	mov	r3, #239
	mov	r0, #200
	str	r3, [sl, #8]
	mov	r3, #1
	str	r3, [sl, #4]
	bl	NandcDelayns
	mov	r3, #4
	str	r3, [r6, r7, asl #8]
	str	r8, [r6, r7, asl #8]
	str	r8, [r6, r7, asl #8]
	str	r8, [r6, r7, asl #8]
.L260:
	mov	r0, r4
	bl	NandcFlashDeCs
	ldrb	r2, [r5, #0]	@ zero_extendqisi2
	sub	r3, r2, #1
	uxtb	r3, r3
	cmp	r3, #253
	bhi	.L259
	ldrb	r1, [r5, #2]	@ zero_extendqisi2
	ldrb	r3, [r5, #1]	@ zero_extendqisi2
	ldr	r0, .L262+4
	str	r1, [sp, #0]
	ldrb	r1, [r5, #3]	@ zero_extendqisi2
	str	r1, [sp, #4]
	ldrb	r1, [r5, #4]	@ zero_extendqisi2
	str	r1, [sp, #8]
	ldrb	r1, [r5, #5]	@ zero_extendqisi2
	str	r1, [sp, #12]
	add	r1, r4, #1
	bl	printk
.L259:
	add	sp, sp, #20
	ldmfd	sp!, {r4, r5, r6, r7, r8, sl, pc}
.L263:
	.align	2
.L262:
	.word	.LANCHOR0
	.word	.LC2
	.fnend
	.size	FlashReadIDRaw, .-FlashReadIDRaw
	.align	2
	.global	ftl_flash_de_init
	.type	ftl_flash_de_init, %function
ftl_flash_de_init:
	.fnstart
	@ args = 0, pretend = 0, frame = 0
	@ frame_needed = 0, uses_anonymous_args = 0
	stmfd	sp!, {r3, r4, r5, lr}
	.save {r3, r4, r5, lr}
	mov	r0, #0
	ldr	r4, .L268
	bl	NandcWaitFlashReady
	bl	FlashSetReadRetryDefault
	ldr	r0, [r4, #3776]
	cmp	r0, #0
	beq	.L265
	mov	r0, #0
	bl	flash_enter_slc_mode
	b	.L266
.L265:
	bl	flash_exit_slc_mode
.L266:
	ldrb	r3, [r4, #3780]	@ zero_extendqisi2
	ldr	r5, .L268
	cmp	r3, #0
	beq	.L267
	ldrb	r3, [r5, #3772]	@ zero_extendqisi2
	tst	r3, #1
	beq	.L267
	mov	r0, #1
	bl	FlashSetInterfaceMode
	mov	r0, #1
	bl	NandcSetMode
	mov	r3, #0
	strb	r3, [r5, #3780]
.L267:
	ldr	r3, [r4, #864]
	mov	r0, #0
	str	r0, [r3, #336]
	ldmfd	sp!, {r3, r4, r5, pc}
.L269:
	.align	2
.L268:
	.word	.LANCHOR0
	.fnend
	.size	ftl_flash_de_init, .-ftl_flash_de_init
	.align	2
	.global	FlashReadDpCmd
	.type	FlashReadDpCmd, %function
FlashReadDpCmd:
	.fnstart
	@ args = 0, pretend = 0, frame = 0
	@ frame_needed = 0, uses_anonymous_args = 0
	ldr	r3, .L274
	stmfd	sp!, {r4, r5, r6, r7, r8, lr}
	.save {r4, r5, r6, r7, r8, lr}
	mov	r7, r2
	add	r2, r3, r0, asl #3
	mov	r5, r1
	mov	r4, r0
	ldrb	r6, [r2, #868]	@ zero_extendqisi2
	ldr	r1, [r2, #864]
	ldrb	r2, [r3, #912]	@ zero_extendqisi2
	add	r6, r6, #8
	cmp	r2, #1
	ldrb	r2, [r3, #904]	@ zero_extendqisi2
	add	r6, r1, r6, asl #8
	str	r2, [r6, #8]
	bne	.L271
	mov	r8, #0
	uxtb	r2, r5
	str	r8, [r6, #4]
	str	r8, [r6, #4]
	str	r2, [r6, #4]
	mov	r2, r5, lsr #8
	str	r2, [r6, #4]
	mov	r2, r5, lsr #16
	str	r2, [r6, #4]
	ldrb	r3, [r3, #905]	@ zero_extendqisi2
	str	r3, [r6, #8]
	bl	NandcWaitFlashReady
	str	r8, [r6, #8]
	str	r8, [r6, #4]
	str	r8, [r6, #4]
	b	.L273
.L271:
	uxtb	r2, r5
	str	r2, [r6, #4]
	mov	r2, r5, lsr #8
	str	r2, [r6, #4]
	mov	r2, r5, lsr #16
	str	r2, [r6, #4]
	ldrb	r3, [r3, #905]	@ zero_extendqisi2
	str	r3, [r6, #8]
.L273:
	uxtb	r3, r7
	mov	r0, r4
	str	r3, [r6, #4]
	mov	r1, r5
	mov	r3, r7, lsr #8
	mov	r7, r7, lsr #16
	str	r3, [r6, #4]
	mov	r3, #48
	str	r7, [r6, #4]
	str	r3, [r6, #8]
	ldmfd	sp!, {r4, r5, r6, r7, r8, lr}
	b	FlashSetRandomizer
.L275:
	.align	2
.L274:
	.word	.LANCHOR0
	.fnend
	.size	FlashReadDpCmd, .-FlashReadDpCmd
	.align	2
	.global	NandcRandmzSel
	.type	NandcRandmzSel, %function
NandcRandmzSel:
	.fnstart
	@ args = 0, pretend = 0, frame = 0
	@ frame_needed = 0, uses_anonymous_args = 0
	@ link register save eliminated.
	ldr	r3, .L277
	add	r3, r3, r0, asl #3
	ldr	r3, [r3, #864]
	str	r1, [r3, #336]
	bx	lr
.L278:
	.align	2
.L277:
	.word	.LANCHOR0
	.fnend
	.size	NandcRandmzSel, .-NandcRandmzSel
	.global	__aeabi_idiv
	.align	2
	.global	NandcTimeCfg
	.type	NandcTimeCfg, %function
NandcTimeCfg:
	.fnstart
	@ args = 0, pretend = 0, frame = 0
	@ frame_needed = 0, uses_anonymous_args = 0
	stmfd	sp!, {r4, lr}
	.save {r4, lr}
	mov	r4, r0
	mov	r0, #0
	bl	rknand_get_clk_rate
	ldr	r1, .L289
	bl	__aeabi_idiv
	ldr	r3, .L289+4
	ldr	r3, [r3, #3008]
	cmp	r0, #250
	movwgt	r2, #8354
	bgt	.L287
	cmp	r0, #220
	bgt	.L288
.L282:
	cmp	r0, #185
	movwgt	r2, #4226
	bgt	.L287
	cmp	r0, #160
	movwgt	r2, #4194
	bgt	.L287
	cmp	r4, #35
	movwls	r2, #4193
	bls	.L287
	cmp	r4, #99
	movwls	r2, #4225
	bls	.L287
.L288:
	movw	r2, #8322
.L287:
	str	r2, [r3, #4]
	ldmfd	sp!, {r4, pc}
.L290:
	.align	2
.L289:
	.word	1000000
	.word	.LANCHOR0
	.fnend
	.size	NandcTimeCfg, .-NandcTimeCfg
	.align	2
	.global	NandcInit
	.type	NandcInit, %function
NandcInit:
	.fnstart
	@ args = 0, pretend = 0, frame = 0
	@ frame_needed = 0, uses_anonymous_args = 0
	stmfd	sp!, {r3, r4, r5, lr}
	.save {r3, r4, r5, lr}
	mov	r2, #0
	ldr	r4, .L293
	mov	r3, #1
	mov	r5, #0
	str	r0, [r4, #3008]
	str	r2, [r4, #868]
	str	r0, [r4, #864]
	str	r3, [r4, #876]
	mov	r3, #2
	str	r0, [r4, #872]
	str	r3, [r4, #884]
	mov	r3, #3
	str	r0, [r4, #880]
	str	r0, [r4, #888]
	str	r3, [r4, #892]
	ldr	r3, [r0, #0]
	and	r3, r3, #253952
	ubfx	r1, r3, #13, #1
	bfi	r3, r2, #13, #1
	ldr	r2, [r0, #352]
	orr	r3, r3, #256
	str	r1, [r4, #3784]
	movw	r1, #2049
	ubfx	r2, r2, #16, #4
	str	r2, [r4, #3788]
	ldr	r2, [r0, #352]
	cmp	r2, r1
	str	r2, [r4, #3792]
	moveq	r2, #8
	streq	r2, [r4, #3788]
	str	r3, [r0, #0]
	mov	r0, #40
	ldr	r3, [r4, #3008]
	str	r5, [r3, #336]
	bl	NandcTimeCfg
	ldr	r3, [r4, #3008]
	movw	r2, #8322
	mov	r0, #36864
	str	r2, [r3, #344]
	ldr	r2, .L293+4
	str	r2, [r3, #304]
	bl	ftl_malloc
	str	r5, [r4, #3824]
	str	r5, [r4, #3832]
	str	r0, [r4, #3796]
	str	r0, [r4, #3800]
	add	r0, r0, #32768
	str	r0, [r4, #3804]
	ldmfd	sp!, {r3, r4, r5, pc}
.L294:
	.align	2
.L293:
	.word	.LANCHOR0
	.word	1710593
	.fnend
	.size	NandcInit, .-NandcInit
	.align	2
	.global	FlashTimingCfg
	.type	FlashTimingCfg, %function
FlashTimingCfg:
	.fnstart
	@ args = 0, pretend = 0, frame = 0
	@ frame_needed = 0, uses_anonymous_args = 0
	@ link register save eliminated.
	sub	r3, r0, #4160
	movw	r2, #4225
	sub	r3, r3, #33
	cmp	r0, r2
	cmpne	r3, #1
	bls	.L296
	movw	r3, #4226
	movw	r2, #8322
	cmp	r0, r3
	cmpne	r0, r2
	bne	.L297
.L296:
	ldr	r3, .L298
	ldr	r3, [r3, #3008]
	str	r0, [r3, #4]
.L297:
	ldr	r3, .L298+4
	ldrb	r0, [r3, #3137]	@ zero_extendqisi2
	b	NandcTimeCfg
.L299:
	.align	2
.L298:
	.word	.LANCHOR0
	.word	.LANCHOR1
	.fnend
	.size	FlashTimingCfg, .-FlashTimingCfg
	.align	2
	.global	NandcGetTimeCfg
	.type	NandcGetTimeCfg, %function
NandcGetTimeCfg:
	.fnstart
	@ args = 0, pretend = 0, frame = 0
	@ frame_needed = 0, uses_anonymous_args = 0
	ldr	ip, .L301
	stmfd	sp!, {r4, lr}
	.save {r4, lr}
	ldr	r4, [ip, #3008]
	ldr	r4, [r4, #4]
	str	r4, [r0, #0]
	ldr	r0, [ip, #3008]
	ldr	r0, [r0, #0]
	str	r0, [r1, #0]
	ldr	r1, [ip, #3008]
	ldr	r1, [r1, #304]
	str	r1, [r2, #0]
	ldr	r2, [ip, #3008]
	ldr	r0, [r2, #308]
	ldr	r1, [r2, #344]
	uxtb	r2, r0
	orr	r2, r2, r1, asl #16
	str	r2, [r3, #0]
	ldmfd	sp!, {r4, pc}
.L302:
	.align	2
.L301:
	.word	.LANCHOR0
	.fnend
	.size	NandcGetTimeCfg, .-NandcGetTimeCfg
	.align	2
	.global	NandcBchSel
	.type	NandcBchSel, %function
NandcBchSel:
	.fnstart
	@ args = 0, pretend = 0, frame = 0
	@ frame_needed = 0, uses_anonymous_args = 0
	@ link register save eliminated.
	ldr	r3, .L308
	mov	r1, #1
	ldr	r2, [r3, #3008]
	str	r0, [r3, #3836]
	mov	r3, #0
	str	r1, [r2, #8]
	mov	r1, #16
	cmp	r0, r1
	bfi	r3, r1, #8, #8
	bfc	r3, #18, #1
	beq	.L307
.L304:
	cmp	r0, #24
	orreq	r3, r3, #16
	beq	.L305
	cmp	r0, #40
	orr	r3, r3, #262144
	orr	r3, r3, #16
	bne	.L305
.L307:
	bfc	r3, #4, #1
.L305:
	orr	r3, r3, #1
	str	r3, [r2, #12]
	bx	lr
.L309:
	.align	2
.L308:
	.word	.LANCHOR0
	.fnend
	.size	NandcBchSel, .-NandcBchSel
	.align	2
	.global	FlashBchSel
	.type	FlashBchSel, %function
FlashBchSel:
	.fnstart
	@ args = 0, pretend = 0, frame = 0
	@ frame_needed = 0, uses_anonymous_args = 0
	@ link register save eliminated.
	ldr	r3, .L311
	strb	r0, [r3, #3840]
	b	NandcBchSel
.L312:
	.align	2
.L311:
	.word	.LANCHOR0
	.fnend
	.size	FlashBchSel, .-FlashBchSel
	.align	2
	.global	ftl_flash_resume
	.type	ftl_flash_resume, %function
ftl_flash_resume:
	.fnstart
	@ args = 0, pretend = 0, frame = 0
	@ frame_needed = 0, uses_anonymous_args = 0
	stmfd	sp!, {r3, r4, r5, lr}
	.save {r3, r4, r5, lr}
	mov	r4, #0
	ldr	r5, .L318
	ldr	r3, [r5, #3008]
	ldr	r2, [r5, #3012]
	str	r2, [r3, #0]
	ldr	r2, [r5, #3016]
	ldr	r3, [r5, #3008]
	str	r2, [r3, #4]
	ldr	r2, [r5, #3020]
	str	r2, [r3, #8]
	ldr	r2, [r5, #3024]
	str	r2, [r3, #12]
	ldr	r2, [r5, #3028]
	str	r2, [r3, #304]
	ldr	r2, [r5, #3032]
	str	r2, [r3, #308]
	ldr	r2, [r5, #3036]
	str	r2, [r3, #336]
	ldr	r2, [r5, #3040]
	add	r5, r5, #2976
	str	r2, [r3, #344]
.L315:
	ldrb	r3, [r5, r4, asl #3]	@ zero_extendqisi2
	sub	r3, r3, #1
	uxtb	r3, r3
	cmp	r3, #253
	bhi	.L314
	uxtb	r0, r4
	bl	FlashReset
.L314:
	add	r4, r4, #1
	cmp	r4, #4
	bne	.L315
	ldr	r4, .L318
	ldrb	r3, [r4, #3780]	@ zero_extendqisi2
	cmp	r3, #0
	beq	.L316
	mov	r0, #1
	bl	NandcSetMode
	ldrb	r0, [r4, #3772]	@ zero_extendqisi2
	bl	FlashSetInterfaceMode
	ldrb	r0, [r4, #3772]	@ zero_extendqisi2
	bl	NandcSetMode
	ldrb	r0, [r4, #3029]	@ zero_extendqisi2
	bl	NandcSetDdrPara
.L316:
	ldr	r3, .L318
	ldr	r3, [r3, #3624]
	ldrb	r0, [r3, #20]	@ zero_extendqisi2
	ldmfd	sp!, {r3, r4, r5, lr}
	b	FlashBchSel
.L319:
	.align	2
.L318:
	.word	.LANCHOR0
	.fnend
	.size	ftl_flash_resume, .-ftl_flash_resume
	.align	2
	.global	ftl_nandc_get_irq_status
	.type	ftl_nandc_get_irq_status, %function
ftl_nandc_get_irq_status:
	.fnstart
	@ args = 0, pretend = 0, frame = 0
	@ frame_needed = 0, uses_anonymous_args = 0
	@ link register save eliminated.
	ldr	r0, [r0, #372]
	bx	lr
	.fnend
	.size	ftl_nandc_get_irq_status, .-ftl_nandc_get_irq_status
	.align	2
	.global	rk_nandc_flash_ready
	.type	rk_nandc_flash_ready, %function
rk_nandc_flash_ready:
	.fnstart
	@ args = 0, pretend = 0, frame = 0
	@ frame_needed = 0, uses_anonymous_args = 0
	@ link register save eliminated.
	ldr	r3, [r0, #368]
	orr	r3, r3, #2
	str	r3, [r0, #368]
	ldr	r3, [r0, #364]
	bic	r3, r3, #2
	str	r3, [r0, #364]
	bx	lr
	.fnend
	.size	rk_nandc_flash_ready, .-rk_nandc_flash_ready
	.align	2
	.global	NandcIqrWaitFlashReady
	.type	NandcIqrWaitFlashReady, %function
NandcIqrWaitFlashReady:
	.fnstart
	@ args = 0, pretend = 0, frame = 0
	@ frame_needed = 0, uses_anonymous_args = 0
	stmfd	sp!, {r4, lr}
	.save {r4, lr}
	mov	r4, r0
	bl	rk_nandc_rb_irq_flag_init
	ldr	r3, [r4, #368]
	orr	r3, r3, #2
	str	r3, [r4, #368]
	ldr	r3, [r4, #364]
	orr	r3, r3, #2
	str	r3, [r4, #364]
	ldr	r3, [r4, #0]
	ubfx	r3, r3, #8, #8
	and	r3, r3, #2
	uxtb	r3, r3
	cmp	r3, #0
	bne	.L323
	mov	r0, r4
	ldmfd	sp!, {r4, lr}
	b	wait_for_nand_flash_ready
.L323:
	ldr	r3, [r4, #368]
	orr	r3, r3, #2
	str	r3, [r4, #368]
	ldr	r3, [r4, #364]
	bic	r3, r3, #2
	str	r3, [r4, #364]
	ldmfd	sp!, {r4, pc}
	.fnend
	.size	NandcIqrWaitFlashReady, .-NandcIqrWaitFlashReady
	.align	2
	.global	FlashEraseBlocks
	.type	FlashEraseBlocks, %function
FlashEraseBlocks:
	.fnstart
	@ args = 0, pretend = 0, frame = 16
	@ frame_needed = 0, uses_anonymous_args = 0
	stmfd	sp!, {r4, r5, r6, r7, r8, r9, sl, fp, lr}
	.save {r4, r5, r6, r7, r8, r9, sl, fp, lr}
	.pad #28
	sub	sp, sp, #28
	ldr	r5, .L344
	mov	r6, r0
	str	r1, [sp, #12]
	mov	r7, r2
	ldrb	r4, [r5, #852]	@ zero_extendqisi2
	cmp	r4, #0
	moveq	r9, r5
	beq	.L325
	mov	r1, r2
	bl	FlashEraseSLc2KBlocks
	b	.L326
.L334:
	mov	r8, #36
	rsb	r3, r4, r7
	mul	r8, r8, r4
	uxtb	r3, r3
	mov	r1, #0
	str	r3, [sp, #0]
	add	r2, sp, #16
	add	r3, sp, #20
	add	fp, r6, r8
	mov	r0, fp
	bl	LogAddr2PhyAddr
	ldrb	r3, [r5, #3762]	@ zero_extendqisi2
	mov	sl, r0
	ldr	r0, [sp, #20]
	cmp	r0, r3
	mvncs	r3, #0
	strcs	r3, [r6, r8]
	bcs	.L328
	ldrb	r3, [r5, #3841]	@ zero_extendqisi2
	cmp	r3, #0
	add	r3, r9, r0, asl #4
	ldr	r3, [r3, #3636]
	moveq	sl, #0
	cmp	r3, #0
	beq	.L330
	uxtb	r0, r0
	bl	FlashWaitCmdDone
.L330:
	ldr	r2, [sp, #20]
	mov	r1, #0
	cmp	sl, #0
	add	r3, r5, r2, asl #4
	movne	r0, #36
	str	r1, [r3, #3640]
	ldr	r1, [sp, #16]
	str	fp, [r3, #3636]
	str	r1, [r3, #3632]
	addne	r1, r4, #1
	mlane	r1, r0, r1, r6
	strne	r1, [r3, #3640]
	add	r3, r9, r2
	add	r2, r9, r2, asl #4
	ldrb	r8, [r3, #3764]	@ zero_extendqisi2
	mov	r0, r8
	strb	r8, [r2, #3628]
	bl	NandcFlashCs
	ldr	r3, [sp, #12]
	mov	r0, r8
	cmp	r3, #1
	bne	.L332
	ldrb	r3, [r5, #3072]	@ zero_extendqisi2
	cmp	r3, #0
	beq	.L332
	bl	flash_enter_slc_mode
	b	.L333
.L332:
	bl	flash_exit_slc_mode
.L333:
	ldr	r3, [sp, #20]
	mov	r0, r8
	ldr	r1, [sp, #16]
	add	r4, r4, sl
	add	r3, r5, r3, asl #2
	ldr	r2, [r3, #3588]
	adds	r2, r2, #0
	movne	r2, #1
	bl	FlashWaitReadyEN
	mov	r0, r8
	ldr	r1, [sp, #16]
	mov	r2, sl
	bl	FlashEraseCmd
	mov	r0, r8
	bl	NandcFlashDeCs
.L328:
	add	r4, r4, #1
.L325:
	cmp	r4, r7
	bcc	.L334
	ldr	r5, .L344
	mov	r4, #0
	ldr	r8, .L344+4
	ldr	r0, [r5, #3008]
	bl	NandcIqrWaitFlashReady
	b	.L335
.L337:
	uxtb	r0, r4
	bl	FlashWaitCmdDone
	ldr	r3, [sp, #12]
	cmp	r3, #1
	bne	.L336
	ldrb	r3, [r5, #3072]	@ zero_extendqisi2
	cmp	r3, #0
	beq	.L336
	ldrb	r0, [r8, r4, asl #4]	@ zero_extendqisi2
	bl	flash_exit_slc_mode
.L336:
	add	r4, r4, #1
.L335:
	ldrb	r2, [r5, #3762]	@ zero_extendqisi2
	ldr	r3, .L344
	cmp	r4, r2
	bcc	.L337
	ldr	r0, [r3, #3844]
	cmp	r0, #0
	beq	.L326
	ldrb	r3, [r3, #2976]	@ zero_extendqisi2
	cmp	r3, #69
	moveq	r3, #0
	moveq	r2, r3
	bne	.L343
	b	.L338
.L339:
	add	r3, r3, #1
	str	r2, [r6, #-36]
.L338:
	cmp	r3, r7
	add	r6, r6, #36
	bne	.L339
.L343:
	mov	r0, #0
.L326:
	add	sp, sp, #28
	ldmfd	sp!, {r4, r5, r6, r7, r8, r9, sl, fp, pc}
.L345:
	.align	2
.L344:
	.word	.LANCHOR0
	.word	.LANCHOR0+3628
	.fnend
	.size	FlashEraseBlocks, .-FlashEraseBlocks
	.align	2
	.global	rk_nandc_flash_xfer_completed
	.type	rk_nandc_flash_xfer_completed, %function
rk_nandc_flash_xfer_completed:
	.fnstart
	@ args = 0, pretend = 0, frame = 0
	@ frame_needed = 0, uses_anonymous_args = 0
	@ link register save eliminated.
	ldr	r3, [r0, #368]
	orr	r3, r3, #1
	str	r3, [r0, #368]
	ldr	r3, [r0, #364]
	bic	r3, r3, #1
	str	r3, [r0, #364]
	bx	lr
	.fnend
	.size	rk_nandc_flash_xfer_completed, .-rk_nandc_flash_xfer_completed
	.align	2
	.global	NandcSendDumpDataStart
	.type	NandcSendDumpDataStart, %function
NandcSendDumpDataStart:
	.fnstart
	@ args = 0, pretend = 0, frame = 8
	@ frame_needed = 0, uses_anonymous_args = 0
	@ link register save eliminated.
	ldr	r2, [r0, #16]
	.pad #8
	sub	sp, sp, #8
	ldr	r3, .L348
	str	r2, [sp, #4]
	ldr	r2, [sp, #4]
	bfc	r2, #2, #1
	str	r2, [sp, #4]
	ldr	r2, [sp, #4]
	str	r2, [r0, #16]
	str	r3, [r0, #8]
	orr	r3, r3, #4
	str	r3, [r0, #8]
	add	sp, sp, #8
	bx	lr
.L349:
	.align	2
.L348:
	.word	538969130
	.fnend
	.size	NandcSendDumpDataStart, .-NandcSendDumpDataStart
	.align	2
	.global	NandcSendDumpDataDone
	.type	NandcSendDumpDataDone, %function
NandcSendDumpDataDone:
	.fnstart
	@ args = 0, pretend = 0, frame = 8
	@ frame_needed = 0, uses_anonymous_args = 0
	@ link register save eliminated.
	.pad #8
	sub	sp, sp, #8
.L351:
	ldr	r3, [r0, #8]
	str	r3, [sp, #4]
	ldr	r3, [sp, #4]
	tst	r3, #1048576
	beq	.L351
	add	sp, sp, #8
	bx	lr
	.fnend
	.size	NandcSendDumpDataDone, .-NandcSendDumpDataDone
	.align	2
	.global	NandcXferStart
	.type	NandcXferStart, %function
NandcXferStart:
	.fnstart
	@ args = 8, pretend = 0, frame = 16
	@ frame_needed = 0, uses_anonymous_args = 0
	stmfd	sp!, {r4, r5, r6, r7, r8, r9, sl, fp, lr}
	.save {r4, r5, r6, r7, r8, r9, sl, fp, lr}
	mov	r6, r1
	ldr	r1, .L366
	mov	r8, r2
	mov	r4, #0
	.pad #20
	sub	sp, sp, #20
	add	r0, r1, r0, asl #3
	ldr	r9, [sp, #56]
	ldr	r5, [r0, #864]
	ldrb	r2, [r0, #868]	@ zero_extendqisi2
	mov	r0, #16
	ldr	ip, [sp, #60]
	ldr	r7, [r5, #12]
	bfi	r7, r0, #8, #8
	bfi	r7, r4, #3, #1
	bfi	r4, r6, #1, #1
	orr	r4, r4, #8
	bfi	r7, r2, #5, #3
	mov	r2, #1
	bfi	r4, r2, #5, #2
	orr	r4, r4, #536870912
	mov	r3, r3, lsr r2
	orr	r4, r4, #1024
	bfi	r4, r3, #4, #1
	ldr	r3, [r1, #3788]
	cmp	r3, #3
	bls	.L354
	ldr	r3, [r5, #16]
	cmp	r9, #0
	cmpeq	ip, #0
	str	r3, [sp, #12]
	ldr	r3, [sp, #12]
	bfc	r3, #2, #1
	str	r3, [sp, #12]
	beq	.L355
	cmp	r6, #0
	beq	.L356
	ldr	r3, [r1, #3836]
	mov	r0, ip
	cmp	r3, #24
	movhi	r3, #128
	movls	r3, #64
	str	r3, [sp, #0]
	mov	r3, r8, lsr r2
	str	r3, [sp, #4]
	mov	r3, #0
	mov	r2, r3
	b	.L358
.L361:
	cmp	ip, #0
	mov	lr, r3, lsr #2
	add	r2, r2, #1
	ldrneh	fp, [r0, #2]
	mvneq	fp, #0
	ldrneh	sl, [r0], #4
	ldreq	sl, [r1, #3804]
	orrne	sl, sl, fp, asl #16
	ldrne	fp, [r1, #3804]
	streq	fp, [sl, lr, asl #2]
	strne	sl, [fp, lr, asl #2]
	ldr	lr, [sp, #0]
	add	r3, r3, lr
.L358:
	ldr	sl, [sp, #4]
	cmp	r2, sl
	bcc	.L361
.L356:
	mov	r0, r5
	add	r8, r8, #1
	bl	rk_nandc_xfer_irq_flag_init
	ldr	r3, [r5, #368]
	mov	r8, r8, asr #1
	cmp	r9, #0
	bfi	r4, r8, #22, #6
	ldr	r8, .L366
	orr	r3, r3, #1
	str	r3, [r5, #368]
	ldr	r3, [r5, #364]
	ubfx	sl, r4, #22, #5
	ldreq	r0, [r8, #3800]
	movne	r0, r9
	orr	r3, r3, #1
	str	r3, [r5, #364]
	ldr	r3, [r8, #3804]
	mov	r2, r6
	mov	r1, sl, asl #10
	str	r3, [r8, #3812]
	str	r0, [r8, #3808]
	bl	rknand_dma_map_single
	mov	r2, r6
	mov	r1, sl, asl #7
	str	r0, [r8, #3816]
	ldr	r0, [r8, #3812]
	bl	rknand_dma_map_single
	mov	r3, #1
	str	r3, [r8, #3824]
	mov	r2, #16
	ldr	r3, [r8, #3816]
	tst	r9, #3
	str	r0, [r8, #3820]
	str	r3, [r5, #20]
	ldr	r3, [r8, #3820]
	str	r3, [r5, #24]
	mov	r3, #0
	str	r3, [sp, #12]
	ldr	r3, [sp, #12]
	bfi	r3, r2, #9, #5
	str	r3, [sp, #12]
	ldr	r3, [sp, #12]
	moveq	r2, #2
	orr	r3, r3, #448
	str	r3, [sp, #12]
	ldreq	r3, [sp, #12]
	bfieq	r3, r2, #3, #3
	streq	r3, [sp, #12]
	rsbs	r6, r6, #1
	ldr	r3, [sp, #12]
	movcc	r6, #0
	orr	r3, r3, #4
	str	r3, [sp, #12]
	ldr	r3, [sp, #12]
	bfi	r3, r6, #1, #1
	str	r3, [sp, #12]
	ldr	r3, [sp, #12]
	orr	r3, r3, #1
	str	r3, [sp, #12]
.L355:
	ldr	r3, [sp, #12]
	str	r3, [r5, #16]
.L354:
	str	r7, [r5, #12]
	str	r4, [r5, #8]
	orr	r4, r4, #4
	str	r4, [r5, #8]
	add	sp, sp, #20
	ldmfd	sp!, {r4, r5, r6, r7, r8, r9, sl, fp, pc}
.L367:
	.align	2
.L366:
	.word	.LANCHOR0
	.fnend
	.size	NandcXferStart, .-NandcXferStart
	.align	2
	.global	NandcCopy1KB
	.type	NandcCopy1KB, %function
NandcCopy1KB:
	.fnstart
	@ args = 4, pretend = 0, frame = 0
	@ frame_needed = 0, uses_anonymous_args = 0
	cmp	r1, #1
	stmfd	sp!, {r4, r5, r6, lr}
	.save {r4, r5, r6, lr}
	mov	r5, r2
	add	r2, r0, #4096
	mov	r4, r0
	ldr	r6, [sp, #16]
	add	r2, r2, r5, asl #9
	bne	.L369
	cmp	r3, #0
	beq	.L370
	mov	r0, r2
	mov	r1, r3
	mov	r2, #1024
	bl	memcpy
.L370:
	cmp	r6, #0
	ldmeqfd	sp!, {r4, r5, r6, pc}
	ldrb	r3, [r6, #2]	@ zero_extendqisi2
	mov	r5, r5, lsr #1
	ldrb	r2, [r6, #1]	@ zero_extendqisi2
	mov	r3, r3, asl #16
	orr	r3, r3, r2, asl #8
	ldrb	r2, [r6, #0]	@ zero_extendqisi2
	orr	r3, r3, r2
	ldrb	r2, [r6, #3]	@ zero_extendqisi2
	orr	r3, r3, r2, asl #24
	mov	r2, #48
	mul	r5, r2, r5
	mov	r5, r5, asr #2
	add	r5, r5, #128
	str	r3, [r4, r5, asl #2]
	ldmfd	sp!, {r4, r5, r6, pc}
.L369:
	cmp	r3, #0
	beq	.L372
	mov	r1, r2
	mov	r0, r3
	mov	r2, #1024
	bl	memcpy
.L372:
	cmp	r6, #0
	ldmeqfd	sp!, {r4, r5, r6, pc}
	mov	r5, r5, lsr #1
	mov	r3, #48
	mul	r5, r3, r5
	mov	r5, r5, asr #2
	add	r5, r5, #128
	ldr	r3, [r4, r5, asl #2]
	mov	r2, r3, lsr #8
	strb	r3, [r6, #0]
	strb	r2, [r6, #1]
	mov	r2, r3, lsr #16
	mov	r3, r3, lsr #24
	strb	r2, [r6, #2]
	strb	r3, [r6, #3]
	ldmfd	sp!, {r4, r5, r6, pc}
	.fnend
	.size	NandcCopy1KB, .-NandcCopy1KB
	.align	2
	.global	Ftl_log2
	.type	Ftl_log2, %function
Ftl_log2:
	.fnstart
	@ args = 0, pretend = 0, frame = 0
	@ frame_needed = 0, uses_anonymous_args = 0
	@ link register save eliminated.
	mov	r2, #1
	mov	r3, #0
	b	.L374
.L375:
	add	r3, r3, #1
	mov	r2, r2, asl #1
	uxth	r3, r3
.L374:
	cmp	r2, r0
	bls	.L375
	sub	r3, r3, #1
	uxth	r0, r3
	bx	lr
	.fnend
	.size	Ftl_log2, .-Ftl_log2
	.align	2
	.global	FtlPrintInfo
	.type	FtlPrintInfo, %function
FtlPrintInfo:
	.fnstart
	@ args = 0, pretend = 0, frame = 0
	@ frame_needed = 0, uses_anonymous_args = 0
	@ link register save eliminated.
	bx	lr
	.fnend
	.size	FtlPrintInfo, .-FtlPrintInfo
	.align	2
	.global	FtlSysBlkNumInit
	.type	FtlSysBlkNumInit, %function
FtlSysBlkNumInit:
	.fnstart
	@ args = 0, pretend = 0, frame = 0
	@ frame_needed = 0, uses_anonymous_args = 0
	@ link register save eliminated.
	ldr	r3, .L380
	movw	r2, #3852
	cmp	r0, #23
	movw	r1, #3862
	ldrh	r2, [r3, r2]
	movls	r0, #24
	ldrh	r1, [r3, r1]
	str	r0, [r3, #3848]
	mul	r2, r2, r0
	rsb	r0, r0, r1
	movw	r1, #3860
	strh	r0, [r3, r1]	@ movhi
	mov	r0, #0
	ldr	r1, [r3, #3868]
	str	r2, [r3, #3856]
	rsb	r2, r2, r1
	str	r2, [r3, #3864]
	bx	lr
.L381:
	.align	2
.L380:
	.word	.LANCHOR0
	.fnend
	.size	FtlSysBlkNumInit, .-FtlSysBlkNumInit
	.align	2
	.global	FtlConstantsInit
	.type	FtlConstantsInit, %function
FtlConstantsInit:
	.fnstart
	@ args = 0, pretend = 0, frame = 16
	@ frame_needed = 0, uses_anonymous_args = 0
	stmfd	sp!, {r4, r5, r6, r7, r8, r9, sl, fp, lr}
	.save {r4, r5, r6, r7, r8, r9, sl, fp, lr}
	mov	r3, #3872
	ldr	r2, .L399
	mov	r4, r0
	ldrh	lr, [r0, #8]
	movw	r1, #3876
	ldrh	r0, [r0, #10]
	.pad #20
	sub	sp, sp, #20
	ldrh	r6, [r4, #14]
	strh	lr, [r2, r3]	@ movhi
	add	r3, r3, #2
	strh	r0, [r2, r3]	@ movhi
	ldrh	r3, [r4, #12]
	strh	r3, [r2, r1]	@ movhi
	movw	r1, #3862
	strh	r6, [r2, r1]	@ movhi
	mov	r2, #0
	ldr	r1, .L399+4
.L383:
	strb	r2, [r2, r1]
	add	r2, r2, #1
	cmp	r2, #32
	bne	.L383
	ldrh	r1, [r4, #14]
	ldrh	r2, [r4, #20]
	cmp	r2, r1, lsr #8
	bcs	.L384
	ldr	r1, .L399+4
	sub	ip, r0, #1
	uxtb	r7, r3
	mov	r2, #0
	rsb	sl, r3, r1
	str	sl, [sp, #8]
	mla	ip, r3, ip, r1
	mov	r8, r7, asl #1
	uxtb	r8, r8
	str	ip, [sp, #12]
	b	.L385
.L386:
	strb	ip, [r9, r1]
	add	fp, ip, r7
	add	ip, ip, r8
	add	r5, r5, #1
	strb	fp, [sl, r1]
	uxtb	ip, ip
.L388:
	cmp	r5, r0
	add	r1, r1, r3
	bcc	.L386
	add	r2, r2, #1
.L385:
	cmp	r2, r3
	bcs	.L387
	ldr	fp, [sp, #8]
	mov	r1, #0
	uxtb	ip, r2
	mov	r5, r1
	add	r9, fp, r2
	ldr	fp, [sp, #12]
	add	sl, fp, r2
	b	.L388
.L387:
	ldr	r2, .L399
	movw	r1, #3874
	mov	r0, r0, asl #1
	mov	r6, r6, lsr #1
	strh	r0, [r2, r1]	@ movhi
	movw	r1, #3862
	strh	r6, [r2, r1]	@ movhi
.L384:
	ldr	r2, .L399
	movw	r1, #3910
	cmp	lr, #1
	mov	r0, #5
	mov	ip, #0
	ldr	sl, .L399
	ldrb	r8, [r2, #852]	@ zero_extendqisi2
	strh	r0, [r2, r1]	@ movhi
	movw	r0, #3912
	streqh	lr, [r2, r1]	@ movhi
	cmp	r8, #0
	movw	r1, #3914
	strh	ip, [r2, r0]	@ movhi
	mov	r0, #4352
	strh	r0, [r2, r1]	@ movhi
	ldrne	r2, .L399
	movne	r0, #384
	ldrh	fp, [r4, #18]
	ldrh	r9, [r4, #20]
	strneh	r0, [r2, r1]	@ movhi
	movw	r2, #3874
	ldrh	r5, [sl, r2]
	movw	r2, #3852
	mov	r0, r9
	mul	r5, r5, r3
	uxth	r5, r5
	strh	r5, [sl, r2]	@ movhi
	add	r2, r2, #10
	ldrh	r6, [sl, r2]
	add	r2, r2, #54
	mul	r3, r3, r6
	strh	r3, [sl, r2]	@ movhi
	add	r2, r2, #2
	ldrh	r3, [r4, #16]
	mul	r1, r3, r5
	strh	r3, [sl, r2]	@ movhi
	mov	r2, #3920
	strh	fp, [sl, r2]	@ movhi
	add	r2, r2, #2
	strh	r1, [sl, r2]	@ movhi
	add	r2, r2, #2
	strh	r9, [sl, r2]	@ movhi
	str	r3, [sp, #4]
	bl	Ftl_log2
	movw	r2, #3926
	movw	r1, #3928
	cmp	r6, #1024
	strh	r0, [sl, r2]	@ movhi
	mov	r2, r9, asl #9
	mov	r7, r0
	uxth	r2, r2
	strh	r2, [sl, r1]	@ movhi
	add	r1, r1, #2
	mov	r2, r2, lsr #8
	strh	r2, [sl, r1]	@ movhi
	movw	r2, #3932
	ldrh	r1, [r4, #26]
	mov	r4, sl
	strh	r1, [sl, r2]	@ movhi
	uxtbhi	r1, r6
	mul	r2, r6, r5
	str	r2, [sl, #3868]
	movw	r2, #3912
	ldr	r3, [sp, #4]
	strhih	r1, [sl, r2]	@ movhi
	ldrh	r2, [sl, r2]
	mul	r1, fp, r9
	rsb	r2, r2, r6
	mov	r6, r6, asl #6
	mul	r2, r2, r5
	mul	r2, r9, r2
	mul	r3, r3, r2
	mov	r3, r3, asr #11
	str	r3, [sl, #3936]
	movw	sl, #3914
	ldrh	r0, [r4, sl]
	mov	r0, r0, asl #3
	bl	__aeabi_idiv
	movw	r3, #3940
	uxth	r0, r0
	strh	r0, [r4, r3]	@ movhi
	cmp	r0, #4
	ldr	r4, .L399
	ldrls	r2, .L399
	movls	r1, #4
	strlsh	r1, [r2, r3]	@ movhi
	cmp	r8, #0
	mov	r1, r5
	movne	r3, #640
	strneh	r3, [r4, sl]	@ movhi
	ldrh	r2, [r4, sl]
	movw	r3, #3942
	mov	r2, r2, asr r7
	add	r7, r7, #9
	mov	r6, r6, asr r7
	add	r2, r2, #2
	strh	r2, [r4, r3]	@ movhi
	add	r3, r3, #2
	uxth	r6, r6
	strh	r6, [r4, r3]	@ movhi
	mul	r3, r5, r6
	add	r6, r6, #8
	str	r3, [r4, #3948]
	movw	r3, #3940
	ldrh	r0, [r4, r3]
	bl	__aeabi_uidiv
	cmp	r5, #1
	ldreq	r3, .L399
	uxtah	r6, r6, r0
	str	r6, [r4, #3848]
	ldr	r4, .L399
	addeq	r6, r6, #4
	streq	r6, [r3, #3848]
	ldr	r0, [r4, #3848]
	uxth	r0, r0
	bl	FtlSysBlkNumInit
	ldr	r3, [r4, #3848]
	ldr	r6, [r4, #3864]
	mov	r0, #2048
	str	r3, [r4, #3952]
	movw	r3, #3918
	ldrh	r3, [r4, r3]
	mov	r6, r6, asl #2
	mul	r6, r3, r6
	movw	r3, #3926
	ldrh	r3, [r4, r3]
	add	r3, r3, #9
	mov	r6, r6, lsr r3
	movw	r3, #3956
	add	r6, r6, #2
	uxth	r6, r6
	strh	r6, [r4, r3]	@ movhi
	movw	r3, #3924
	ldrh	r5, [r4, r3]
	mov	r1, r5
	bl	__aeabi_idiv
	movw	r3, #3958
	ldrb	ip, [r4, #3072]	@ zero_extendqisi2
	ldr	r1, [r4, #3948]
	cmp	ip, #0
	strh	r0, [r4, r3]	@ movhi
	mov	r3, #0
	str	r3, [r4, #3960]
	movw	r3, #3940
	ldrh	r0, [r4, r3]
	add	r2, r0, #3
	strh	r2, [r4, r3]	@ movhi
	add	r2, r1, #3
	str	r2, [r4, #3948]
	addne	r0, r0, #4
	addne	r1, r1, #5
	strneh	r0, [r4, r3]	@ movhi
	strne	r1, [r4, #3948]
	bne	.L396
.L395:
	cmp	r2, #7
	movls	r3, #8
	strls	r3, [r4, #3948]
.L396:
	movw	r3, #3964
	mov	r2, #0
	strh	r2, [r4, r3]	@ movhi
	movw	r2, #3860
	ldrh	r2, [r4, r2]
	mov	r0, #0
	mov	r1, r2, lsr #3
	add	r2, r1, r2, asl #1
	add	r2, r2, #52
	add	r6, r2, r6, asl #2
	cmp	r6, r5, asl #9
	ldrcc	r2, .L399
	movcc	r1, #1
	strcch	r1, [r2, r3]	@ movhi
	add	sp, sp, #20
	ldmfd	sp!, {r4, r5, r6, r7, r8, r9, sl, fp, pc}
.L400:
	.align	2
.L399:
	.word	.LANCHOR0
	.word	.LANCHOR0+3878
	.fnend
	.size	FtlConstantsInit, .-FtlConstantsInit
	.align	2
	.global	IsBlkInVendorPart
	.type	IsBlkInVendorPart, %function
IsBlkInVendorPart:
	.fnstart
	@ args = 0, pretend = 0, frame = 0
	@ frame_needed = 0, uses_anonymous_args = 0
	@ link register save eliminated.
	ldr	r3, .L408
	movw	r2, #3966
	ldrh	r2, [r3, r2]
	cmp	r2, #0
	beq	.L406
	movw	r2, #3940
	ldrh	r1, [r3, r2]
	ldr	r2, [r3, #3968]
	mov	r3, #0
	b	.L403
.L405:
	ldrh	ip, [r2], #2
	cmp	ip, r0
	beq	.L407
	add	r3, r3, #1
	uxth	r3, r3
.L403:
	cmp	r3, r1
	bne	.L405
	mov	r0, #0
	bx	lr
.L407:
	mov	r0, #1
	bx	lr
.L406:
	mov	r0, r2
	bx	lr
.L409:
	.align	2
.L408:
	.word	.LANCHOR0
	.fnend
	.size	IsBlkInVendorPart, .-IsBlkInVendorPart
	.align	2
	.global	FtlCacheMetchLpa
	.type	FtlCacheMetchLpa, %function
FtlCacheMetchLpa:
	.fnstart
	@ args = 0, pretend = 0, frame = 0
	@ frame_needed = 0, uses_anonymous_args = 0
	ldr	r2, .L418
	stmfd	sp!, {r4, lr}
	.save {r4, lr}
	ldr	r3, [r2, #3972]
	cmp	r3, #0
	beq	.L415
	ldr	ip, [r2, #3976]
	mov	r2, #0
.L414:
	ldr	r4, [ip, #16]
	cmp	r4, r0
	bcc	.L412
	cmp	r4, r1
	bls	.L416
.L412:
	add	r2, r2, #1
	add	ip, ip, #36
	cmp	r2, r3
	bne	.L414
	mov	r0, #0
	ldmfd	sp!, {r4, pc}
.L416:
	mov	r0, #1
	ldmfd	sp!, {r4, pc}
.L415:
	mov	r0, r3
	ldmfd	sp!, {r4, pc}
.L419:
	.align	2
.L418:
	.word	.LANCHOR0
	.fnend
	.size	FtlCacheMetchLpa, .-FtlCacheMetchLpa
	.align	2
	.global	FtlGetCap
	.type	FtlGetCap, %function
FtlGetCap:
	.fnstart
	@ args = 0, pretend = 0, frame = 0
	@ frame_needed = 0, uses_anonymous_args = 0
	@ link register save eliminated.
	ldr	r3, .L421
	ldr	r0, [r3, #3960]
	bx	lr
.L422:
	.align	2
.L421:
	.word	.LANCHOR0
	.fnend
	.size	FtlGetCap, .-FtlGetCap
	.align	2
	.global	ftl_get_density
	.type	ftl_get_density, %function
ftl_get_density:
	.fnstart
	@ args = 0, pretend = 0, frame = 0
	@ frame_needed = 0, uses_anonymous_args = 0
	@ link register save eliminated.
	ldr	r3, .L424
	ldr	r0, [r3, #3960]
	bx	lr
.L425:
	.align	2
.L424:
	.word	.LANCHOR0
	.fnend
	.size	ftl_get_density, .-ftl_get_density
	.align	2
	.global	FtlGetLpn
	.type	FtlGetLpn, %function
FtlGetLpn:
	.fnstart
	@ args = 0, pretend = 0, frame = 0
	@ frame_needed = 0, uses_anonymous_args = 0
	@ link register save eliminated.
	ldr	r3, .L427
	ldr	r0, [r3, #3980]
	bx	lr
.L428:
	.align	2
.L427:
	.word	.LANCHOR0
	.fnend
	.size	FtlGetLpn, .-FtlGetLpn
	.align	2
	.global	FtlBbmMapBadBlock
	.type	FtlBbmMapBadBlock, %function
FtlBbmMapBadBlock:
	.fnstart
	@ args = 0, pretend = 0, frame = 0
	@ frame_needed = 0, uses_anonymous_args = 0
	stmfd	sp!, {r0, r1, r4, r5, r6, lr}
	.save {r0, r1, r4, r5, r6, lr}
	movw	r3, #3916
	ldr	r4, .L430
	mov	r5, r0
	ldrh	r6, [r4, r3]
	mov	r1, r6
	bl	__aeabi_uidiv
	uxth	r2, r0
	mls	r3, r6, r2, r5
	add	r1, r4, r2, asl #2
	mov	r6, #1
	ldr	r0, [r1, #4012]
	uxth	r3, r3
	and	r1, r3, #31
	mov	ip, r3, lsr #5
	ldr	lr, [r0, ip, asl #2]
	orr	r1, lr, r6, asl r1
	str	r1, [r0, ip, asl #2]
	str	r1, [sp, #0]
	mov	r1, r5
	ldr	r0, .L430+4
	bl	printk
	movw	r3, #3990
	ldrh	r2, [r4, r3]
	mov	r0, #0
	add	r2, r2, r6
	strh	r2, [r4, r3]	@ movhi
	ldmfd	sp!, {r2, r3, r4, r5, r6, pc}
.L431:
	.align	2
.L430:
	.word	.LANCHOR0
	.word	.LC3
	.fnend
	.size	FtlBbmMapBadBlock, .-FtlBbmMapBadBlock
	.global	__aeabi_uidivmod
	.align	2
	.global	FtlBbmIsBadBlock
	.type	FtlBbmIsBadBlock, %function
FtlBbmIsBadBlock:
	.fnstart
	@ args = 0, pretend = 0, frame = 0
	@ frame_needed = 0, uses_anonymous_args = 0
	stmfd	sp!, {r3, r4, r5, r6, r7, lr}
	.save {r3, r4, r5, r6, r7, lr}
	movw	r3, #3916
	ldr	r5, .L433
	mov	r7, r0
	ldrh	r6, [r5, r3]
	mov	r1, r6
	bl	__aeabi_uidivmod
	mov	r0, r7
	uxth	r4, r1
	mov	r1, r6
	bl	__aeabi_uidiv
	mov	r2, r4, lsr #5
	and	r4, r4, #31
	uxth	r0, r0
	add	r5, r5, r0, asl #2
	ldr	r3, [r5, #4012]
	ldr	r0, [r3, r2, asl #2]
	mov	r0, r0, lsr r4
	and	r0, r0, #1
	ldmfd	sp!, {r3, r4, r5, r6, r7, pc}
.L434:
	.align	2
.L433:
	.word	.LANCHOR0
	.fnend
	.size	FtlBbmIsBadBlock, .-FtlBbmIsBadBlock
	.align	2
	.global	FtlBbtInfoPrint
	.type	FtlBbtInfoPrint, %function
FtlBbtInfoPrint:
	.fnstart
	@ args = 0, pretend = 0, frame = 0
	@ frame_needed = 0, uses_anonymous_args = 0
	@ link register save eliminated.
	bx	lr
	.fnend
	.size	FtlBbtInfoPrint, .-FtlBbtInfoPrint
	.align	2
	.global	FtlBbtCalcTotleCnt
	.type	FtlBbtCalcTotleCnt, %function
FtlBbtCalcTotleCnt:
	.fnstart
	@ args = 0, pretend = 0, frame = 0
	@ frame_needed = 0, uses_anonymous_args = 0
	stmfd	sp!, {r4, r5, r6, r7, r8, lr}
	.save {r4, r5, r6, r7, r8, lr}
	mov	r4, #0
	mov	r5, r4
	ldr	r6, .L440
	movw	r8, #3916
	movw	r7, #3874
	b	.L437
.L439:
	mov	r0, r5
	add	r5, r5, #1
	bl	FtlBbmIsBadBlock
	uxth	r5, r5
	cmp	r0, #0
	addne	r4, r4, #1
	uxthne	r4, r4
.L437:
	ldrh	r3, [r6, r8]
	ldrh	r2, [r6, r7]
	mul	r3, r2, r3
	cmp	r5, r3
	blt	.L439
	mov	r0, r4
	ldmfd	sp!, {r4, r5, r6, r7, r8, pc}
.L441:
	.align	2
.L440:
	.word	.LANCHOR0
	.fnend
	.size	FtlBbtCalcTotleCnt, .-FtlBbtCalcTotleCnt
	.align	2
	.global	V2P_block
	.type	V2P_block, %function
V2P_block:
	.fnstart
	@ args = 0, pretend = 0, frame = 0
	@ frame_needed = 0, uses_anonymous_args = 0
	stmfd	sp!, {r3, r4, r5, r6, r7, lr}
	.save {r3, r4, r5, r6, r7, lr}
	movw	r3, #3876
	ldr	r5, .L443
	mov	r7, r1
	mov	r6, r0
	ldrh	r4, [r5, r3]
	mov	r1, r4
	bl	__aeabi_uidiv
	movw	r3, #3916
	ldrh	r5, [r5, r3]
	mov	r1, r4
	mul	r7, r4, r7
	mla	r5, r5, r0, r7
	mov	r0, r6
	bl	__aeabi_uidivmod
	add	r1, r5, r1
	uxth	r0, r1
	ldmfd	sp!, {r3, r4, r5, r6, r7, pc}
.L444:
	.align	2
.L443:
	.word	.LANCHOR0
	.fnend
	.size	V2P_block, .-V2P_block
	.align	2
	.global	P2V_plane
	.type	P2V_plane, %function
P2V_plane:
	.fnstart
	@ args = 0, pretend = 0, frame = 0
	@ frame_needed = 0, uses_anonymous_args = 0
	ldr	r3, .L446
	movw	r2, #3876
	stmfd	sp!, {r4, r5, r6, lr}
	.save {r4, r5, r6, lr}
	mov	r6, r0
	ldrh	r4, [r3, r2]
	add	r2, r2, #40
	ldrh	r1, [r3, r2]
	bl	__aeabi_uidiv
	mov	r1, r4
	mul	r5, r0, r4
	mov	r0, r6
	bl	__aeabi_uidivmod
	add	r1, r5, r1
	uxth	r0, r1
	ldmfd	sp!, {r4, r5, r6, pc}
.L447:
	.align	2
.L446:
	.word	.LANCHOR0
	.fnend
	.size	P2V_plane, .-P2V_plane
	.align	2
	.global	P2V_block_in_plane
	.type	P2V_block_in_plane, %function
P2V_block_in_plane:
	.fnstart
	@ args = 0, pretend = 0, frame = 0
	@ frame_needed = 0, uses_anonymous_args = 0
	stmfd	sp!, {r4, lr}
	.save {r4, lr}
	movw	r3, #3916
	ldr	r4, .L449
	ldrh	r1, [r4, r3]
	bl	__aeabi_uidivmod
	movw	r3, #3876
	uxth	r0, r1
	ldrh	r1, [r4, r3]
	bl	__aeabi_uidiv
	uxth	r0, r0
	ldmfd	sp!, {r4, pc}
.L450:
	.align	2
.L449:
	.word	.LANCHOR0
	.fnend
	.size	P2V_block_in_plane, .-P2V_block_in_plane
	.align	2
	.type	FtlFreeSysBlkQueueIn.part.7, %function
FtlFreeSysBlkQueueIn.part.7:
	.fnstart
	@ args = 0, pretend = 0, frame = 0
	@ frame_needed = 0, uses_anonymous_args = 0
	cmp	r1, #0
	stmfd	sp!, {r4, r5, r6, lr}
	.save {r4, r5, r6, lr}
	mov	r5, r0
	beq	.L452
	ldr	r4, .L453
	ldr	r3, [r4, #4044]
	cmp	r3, #0
	bne	.L452
	bl	P2V_block_in_plane
	mov	r1, #1
	mov	r3, r5, asl #10
	mov	r2, r1
	mov	r6, r0
	ldr	r0, [r4, #4048]
	mov	r6, r6, asl #1
	str	r3, [r0, #4]
	bl	FlashEraseBlocks
	ldr	r3, [r4, #4052]
	ldrh	r2, [r3, r6]
	add	r2, r2, #1
	strh	r2, [r3, r6]	@ movhi
	ldr	r3, [r4, #4056]
	add	r3, r3, #1
	str	r3, [r4, #4056]
.L452:
	ldr	r3, .L453
	movw	r2, #4066
	movw	r0, #4060
	ldrh	r1, [r3, r2]
	add	r1, r1, #1
	strh	r1, [r3, r2]	@ movhi
	mov	r2, #4064
	ldrh	r1, [r3, r2]
	add	ip, r1, #4
	add	r1, r1, #1
	bic	r1, r1, #64512
	add	ip, r3, ip, asl #1
	strh	r5, [ip, r0]	@ movhi
	strh	r1, [r3, r2]	@ movhi
	ldmfd	sp!, {r4, r5, r6, pc}
.L454:
	.align	2
.L453:
	.word	.LANCHOR0
	.fnend
	.size	FtlFreeSysBlkQueueIn.part.7, .-FtlFreeSysBlkQueueIn.part.7
	.align	2
	.global	ftl_cmp_data_ver
	.type	ftl_cmp_data_ver, %function
ftl_cmp_data_ver:
	.fnstart
	@ args = 0, pretend = 0, frame = 0
	@ frame_needed = 0, uses_anonymous_args = 0
	@ link register save eliminated.
	cmp	r0, r1
	bls	.L456
	rsb	r0, r1, r0
	cmp	r0, #-2147483648
	movhi	r0, #0
	movls	r0, #1
	bx	lr
.L456:
	rsb	r0, r0, r1
	cmp	r0, #-2147483648
	movls	r0, #0
	movhi	r0, #1
	bx	lr
	.fnend
	.size	ftl_cmp_data_ver, .-ftl_cmp_data_ver
	.align	2
	.global	FtlFreeSysBlkQueueEmpty
	.type	FtlFreeSysBlkQueueEmpty, %function
FtlFreeSysBlkQueueEmpty:
	.fnstart
	@ args = 0, pretend = 0, frame = 0
	@ frame_needed = 0, uses_anonymous_args = 0
	@ link register save eliminated.
	ldr	r2, .L459
	movw	r3, #4066
	ldrh	r0, [r2, r3]
	rsbs	r0, r0, #1
	movcc	r0, #0
	bx	lr
.L460:
	.align	2
.L459:
	.word	.LANCHOR0
	.fnend
	.size	FtlFreeSysBlkQueueEmpty, .-FtlFreeSysBlkQueueEmpty
	.align	2
	.global	FtlFreeSysBlkQueueFull
	.type	FtlFreeSysBlkQueueFull, %function
FtlFreeSysBlkQueueFull:
	.fnstart
	@ args = 0, pretend = 0, frame = 0
	@ frame_needed = 0, uses_anonymous_args = 0
	@ link register save eliminated.
	ldr	r2, .L462
	movw	r3, #4066
	ldrh	r0, [r2, r3]
	sub	r2, r0, #1024
	rsbs	r0, r2, #0
	adc	r0, r0, r2
	bx	lr
.L463:
	.align	2
.L462:
	.word	.LANCHOR0
	.fnend
	.size	FtlFreeSysBlkQueueFull, .-FtlFreeSysBlkQueueFull
	.align	2
	.global	FtlFreeSysBlkQueueIn
	.type	FtlFreeSysBlkQueueIn, %function
FtlFreeSysBlkQueueIn:
	.fnstart
	@ args = 0, pretend = 0, frame = 0
	@ frame_needed = 0, uses_anonymous_args = 0
	@ link register save eliminated.
	sub	r2, r0, #1
	movw	r3, #65533
	uxth	r2, r2
	cmp	r2, r3
	bxhi	lr
	ldr	r2, .L466
	movw	r3, #4066
	ldrh	r3, [r2, r3]
	cmp	r3, #1024
	bxeq	lr
	b	FtlFreeSysBlkQueueIn.part.7
.L467:
	.align	2
.L466:
	.word	.LANCHOR0
	.fnend
	.size	FtlFreeSysBlkQueueIn, .-FtlFreeSysBlkQueueIn
	.align	2
	.global	FtlFreeSysBLkSort
	.type	FtlFreeSysBLkSort, %function
FtlFreeSysBLkSort:
	.fnstart
	@ args = 0, pretend = 0, frame = 0
	@ frame_needed = 0, uses_anonymous_args = 0
	ldr	r3, .L472
	ldr	r2, .L472+4
	ldr	r1, .L472+8
	stmfd	sp!, {r4, r5, lr}
	.save {r4, r5, lr}
	ldrh	r4, [r2, r3]
	movw	r3, #4066
	ldrh	r3, [r1, r3]
	and	r4, r4, #31
	cmp	r3, #0
	ldmeqfd	sp!, {r4, r5, pc}
	movw	r3, #4062
	mov	r0, #0
	ldrh	r2, [r1, r3]
	mov	r3, #4064
	ldrh	r3, [r1, r3]
	b	.L470
.L471:
	add	ip, r1, r2, asl #1
	add	r2, r2, #1
	add	ip, ip, #4064
	add	r0, r0, #1
	mov	r2, r2, asl #22
	ldrh	r5, [ip, #4]
	add	ip, r1, r3, asl #1
	add	r3, r3, #1
	add	ip, ip, #4064
	mov	r2, r2, lsr #22
	uxth	r0, r0
	mov	r3, r3, asl #22
	strh	r5, [ip, #4]	@ movhi
	mov	r3, r3, lsr #22
.L470:
	cmp	r0, r4
	ldr	ip, .L472+8
	blt	.L471
	movw	r1, #4062
	strh	r2, [ip, r1]	@ movhi
	mov	r2, #4064
	strh	r3, [ip, r2]	@ movhi
	ldmfd	sp!, {r4, r5, pc}
.L473:
	.align	2
.L472:
	.word	-2040
	.word	.LANCHOR2
	.word	.LANCHOR0
	.fnend
	.size	FtlFreeSysBLkSort, .-FtlFreeSysBLkSort
	.align	2
	.global	FtlFreeSysBlkQueueOut
	.type	FtlFreeSysBlkQueueOut, %function
FtlFreeSysBlkQueueOut:
	.fnstart
	@ args = 0, pretend = 0, frame = 0
	@ frame_needed = 0, uses_anonymous_args = 0
	stmfd	sp!, {r3, r4, r5, r6, r7, r8, sl, lr}
	.save {r3, r4, r5, r6, r7, r8, sl, lr}
	movw	r6, #4066
	ldr	r4, .L481
	movw	r7, #4062
.L475:
	ldrh	r1, [r4, r6]
	cmp	r1, #0
	beq	.L476
	ldrh	r2, [r4, r7]
	sub	r1, r1, #1
	ldr	sl, [r4, #4044]
	add	r3, r4, r2, asl #1
	cmp	sl, #0
	add	r3, r3, #4064
	add	r2, r2, #1
	bic	r2, r2, #64512
	ldrh	r5, [r3, #4]
	strh	r1, [r4, r6]	@ movhi
	strh	r2, [r4, r7]	@ movhi
	bne	.L477
	mov	r0, r5
	bl	P2V_block_in_plane
	mov	r3, r5, asl #10
	mov	r8, r0
	ldr	r0, [r4, #4048]
	str	r3, [r0, #4]
	ldrb	r3, [r4, #3072]	@ zero_extendqisi2
	cmp	r3, #0
	beq	.L478
	mov	r1, sl
	mov	r2, #1
	bl	FlashEraseBlocks
.L478:
	mov	r1, #1
	ldr	r0, [r4, #4048]
	mov	r2, r1
	mov	r8, r8, asl #1
	bl	FlashEraseBlocks
	ldr	r3, [r4, #4052]
	ldrh	r2, [r3, r8]
	add	r2, r2, #1
	strh	r2, [r3, r8]	@ movhi
	ldr	r3, [r4, #4056]
	add	r3, r3, #1
	str	r3, [r4, #4056]
	b	.L477
.L476:
	ldr	r0, .L481+4
	bl	printk
.L479:
	b	.L479
.L477:
	sub	r2, r5, #1
	movw	r3, #65533
	uxth	r2, r2
	cmp	r2, r3
	bls	.L480
	mov	r1, r5
	ldrh	r2, [r4, r6]
	ldr	r0, .L481+8
	bl	printk
	b	.L475
.L480:
	mov	r0, r5
	ldmfd	sp!, {r3, r4, r5, r6, r7, r8, sl, pc}
.L482:
	.align	2
.L481:
	.word	.LANCHOR0
	.word	.LC4
	.word	.LC5
	.fnend
	.size	FtlFreeSysBlkQueueOut, .-FtlFreeSysBlkQueueOut
	.align	2
	.global	test_node_in_list
	.type	test_node_in_list, %function
test_node_in_list:
	.fnstart
	@ args = 0, pretend = 0, frame = 0
	@ frame_needed = 0, uses_anonymous_args = 0
	ldr	r3, .L488
	stmfd	sp!, {r4, lr}
	.save {r4, lr}
	movw	r4, #65535
	ldr	r2, [r0, #0]
	ldr	r0, [r3, #-2020]
	ldr	ip, .L488+4
	rsb	r3, r0, r2
	mov	r3, r3, asr #1
	mul	r3, ip, r3
	mov	ip, #6
	uxth	r3, r3
.L485:
	cmp	r1, r3
	beq	.L486
	ldrh	r3, [r2, #0]
	cmp	r3, r4
	beq	.L487
	mla	r2, ip, r3, r0
	b	.L485
.L486:
	mov	r0, #1
	ldmfd	sp!, {r4, pc}
.L487:
	mov	r0, #0
	ldmfd	sp!, {r4, pc}
.L489:
	.align	2
.L488:
	.word	.LANCHOR2
	.word	-1431655765
	.fnend
	.size	test_node_in_list, .-test_node_in_list
	.align	2
	.global	insert_data_list
	.type	insert_data_list, %function
insert_data_list:
	.fnstart
	@ args = 0, pretend = 0, frame = 16
	@ frame_needed = 0, uses_anonymous_args = 0
	ldr	r2, .L505
	movw	r3, #3860
	stmfd	sp!, {r4, r5, r6, r7, r8, r9, sl, fp, lr}
	.save {r4, r5, r6, r7, r8, r9, sl, fp, lr}
	.pad #20
	sub	sp, sp, #20
	ldrh	r3, [r2, r3]
	cmp	r3, r0
	bls	.L491
	ldr	r1, .L505+4
	mov	ip, #6
	mul	ip, ip, r0
	mvn	r6, #0
	ldr	r4, [r1, #-2020]
	mov	r8, r1
	add	r2, r4, ip
	strh	r6, [r2, #2]	@ movhi
	strh	r6, [r4, ip]	@ movhi
	ldr	r3, [r1, #-2016]
	cmp	r3, #0
	beq	.L504
.L492:
	ldr	r7, [r1, #-2012]
	mov	r5, r0, asl #1
	ldrh	r1, [r2, #4]
	ldr	fp, [r8, #-2020]
	ldrh	sl, [r7, r5]
	cmp	r1, #0
	ldr	r8, .L505+8
	mulne	r6, r1, sl
	rsb	r1, fp, r3
	movw	sl, #3860
	mov	r1, r1, asr #1
	mul	r1, r8, r1
	ldr	r8, .L505
	ldrh	sl, [r8, sl]
	ldr	r8, [r8, #4052]
	uxth	r1, r1
	add	r5, r8, r5
	str	r5, [sp, #12]
	mov	r5, #0
	str	sl, [sp, #8]
	str	r8, [sp, #4]
.L499:
	add	r5, r5, #1
	ldr	r8, [sp, #8]
	uxth	r5, r5
	cmp	r5, r8
	bhi	.L491
	cmp	r0, r1
	beq	.L491
	mov	r9, r1, asl #1
	ldrh	r8, [r3, #4]
	ldrh	sl, [r7, r9]
	cmp	r8, #0
	mvneq	r8, #0
	mulne	r8, r8, sl
	cmp	r8, r6
	bne	.L495
	ldr	r8, [sp, #4]
	ldrh	sl, [r8, r9]
	ldr	r9, [sp, #12]
	ldrh	r8, [r9, #0]
	cmp	sl, r8
	bcc	.L497
	b	.L496
.L495:
	bhi	.L496
.L497:
	ldrh	r8, [r3, #0]
	movw	sl, #65535
	cmp	r8, sl
	streqh	r1, [r2, #2]	@ movhi
	streqh	r0, [r3, #0]	@ movhi
	ldreq	r3, .L505+4
	streq	r2, [r3, #-2008]
	beq	.L491
.L498:
	mov	r1, #6
	mla	r3, r1, r8, fp
	mov	r1, r8
	b	.L499
.L496:
	strh	r1, [r4, ip]	@ movhi
	ldrh	r1, [r3, #2]
	strh	r1, [r2, #2]	@ movhi
	ldr	r1, .L505+4
	ldr	ip, [r1, #-2016]
	cmp	r3, ip
	bne	.L500
	strh	r0, [r3, #2]	@ movhi
.L504:
	str	r2, [r1, #-2016]
	b	.L491
.L500:
	ldrh	r2, [r3, #2]
	mov	ip, #6
	ldr	r1, [r1, #-2020]
	mul	r2, ip, r2
	strh	r0, [r1, r2]	@ movhi
	strh	r0, [r3, #2]	@ movhi
.L491:
	mov	r0, #0
	add	sp, sp, #20
	ldmfd	sp!, {r4, r5, r6, r7, r8, r9, sl, fp, pc}
.L506:
	.align	2
.L505:
	.word	.LANCHOR0
	.word	.LANCHOR2
	.word	-1431655765
	.fnend
	.size	insert_data_list, .-insert_data_list
	.align	2
	.global	INSERT_DATA_LIST
	.type	INSERT_DATA_LIST, %function
INSERT_DATA_LIST:
	.fnstart
	@ args = 0, pretend = 0, frame = 0
	@ frame_needed = 0, uses_anonymous_args = 0
	stmfd	sp!, {r3, lr}
	.save {r3, lr}
	bl	insert_data_list
	ldr	r2, .L508
	ldr	r3, .L508+4
	ldrh	r1, [r2, r3]
	add	r1, r1, #1
	strh	r1, [r2, r3]	@ movhi
	ldmfd	sp!, {r3, pc}
.L509:
	.align	2
.L508:
	.word	.LANCHOR2
	.word	-2004
	.fnend
	.size	INSERT_DATA_LIST, .-INSERT_DATA_LIST
	.align	2
	.global	insert_free_list
	.type	insert_free_list, %function
insert_free_list:
	.fnstart
	@ args = 0, pretend = 0, frame = 0
	@ frame_needed = 0, uses_anonymous_args = 0
	stmfd	sp!, {r4, r5, r6, r7, r8, r9, sl, lr}
	.save {r4, r5, r6, r7, r8, r9, sl, lr}
	movw	r6, #65535
	cmp	r0, r6
	beq	.L511
	ldr	r1, .L518
	mov	r5, #6
	mul	ip, r5, r0
	mvn	r3, #0
	ldr	r4, [r1, #-2020]
	add	r2, r4, ip
	strh	r3, [r2, #2]	@ movhi
	strh	r3, [r4, ip]	@ movhi
	ldr	r3, [r1, #-2000]
	cmp	r3, #0
	beq	.L517
.L512:
	ldr	sl, [r1, #-2020]
	mov	r8, r0, asl #1
	ldr	r9, .L518+4
	rsb	r1, sl, r3
	ldr	r7, .L518+8
	mov	r1, r1, asr #1
	ldr	r7, [r7, #4052]
	mul	r1, r9, r1
	mov	r9, r5
	ldrh	r8, [r7, r8]
	uxth	r1, r1
.L515:
	mov	r5, r1, asl #1
	ldrh	r5, [r7, r5]
	cmp	r5, r8
	bcs	.L513
	ldrh	r5, [r3, #0]
	cmp	r5, r6
	streqh	r1, [r2, #2]	@ movhi
	streqh	r0, [r3, #0]	@ movhi
	beq	.L511
.L514:
	mla	r3, r9, r5, sl
	mov	r1, r5
	b	.L515
.L513:
	ldrh	r5, [r3, #2]
	strh	r5, [r2, #2]	@ movhi
	strh	r1, [r4, ip]	@ movhi
	ldr	r1, .L518
	ldr	ip, [r1, #-2000]
	cmp	r3, ip
	bne	.L516
	strh	r0, [r3, #2]	@ movhi
.L517:
	str	r2, [r1, #-2000]
	b	.L511
.L516:
	ldrh	r2, [r3, #2]
	mov	ip, #6
	ldr	r1, [r1, #-2020]
	mul	r2, ip, r2
	strh	r0, [r1, r2]	@ movhi
	strh	r0, [r3, #2]	@ movhi
.L511:
	mov	r0, #0
	ldmfd	sp!, {r4, r5, r6, r7, r8, r9, sl, pc}
.L519:
	.align	2
.L518:
	.word	.LANCHOR2
	.word	-1431655765
	.word	.LANCHOR0
	.fnend
	.size	insert_free_list, .-insert_free_list
	.align	2
	.global	INSERT_FREE_LIST
	.type	INSERT_FREE_LIST, %function
INSERT_FREE_LIST:
	.fnstart
	@ args = 0, pretend = 0, frame = 0
	@ frame_needed = 0, uses_anonymous_args = 0
	stmfd	sp!, {r3, lr}
	.save {r3, lr}
	bl	insert_free_list
	ldr	r2, .L521
	ldr	r3, .L521+4
	ldrh	r1, [r2, r3]
	add	r1, r1, #1
	strh	r1, [r2, r3]	@ movhi
	ldmfd	sp!, {r3, pc}
.L522:
	.align	2
.L521:
	.word	.LANCHOR2
	.word	-1996
	.fnend
	.size	INSERT_FREE_LIST, .-INSERT_FREE_LIST
	.align	2
	.global	List_remove_node
	.type	List_remove_node, %function
List_remove_node:
	.fnstart
	@ args = 0, pretend = 0, frame = 0
	@ frame_needed = 0, uses_anonymous_args = 0
	ldr	ip, .L528
	mov	r2, #6
	mul	r1, r2, r1
	ldr	r3, [ip, #-2020]
	stmfd	sp!, {r4, r5, r6, lr}
	.save {r4, r5, r6, lr}
	add	r5, r3, r1
	ldr	r4, [r0, #0]
	movw	r6, #65535
	cmp	r5, r4
	ldrh	r4, [r3, r1]
	bne	.L524
	cmp	r4, r6
	mlane	r2, r2, r4, r3
	moveq	r2, #0
	streq	r2, [r0, #0]
	strne	r2, [r0, #0]
	mvnne	r0, #0
	strneh	r0, [r2, #2]	@ movhi
	b	.L526
.L524:
	cmp	r4, r6
	ldrh	r0, [r5, #2]
	bne	.L527
	cmp	r0, r4
	mulne	r2, r2, r0
	mvnne	r0, #0
	strneh	r0, [r3, r2]	@ movhi
	b	.L526
.L527:
	mla	r4, r2, r4, r3
	strh	r0, [r4, #2]	@ movhi
	ldrh	r6, [r5, #2]
	ldrh	r4, [r3, r1]
	ldr	r0, [ip, #-2020]
	mul	r2, r2, r6
	strh	r4, [r0, r2]	@ movhi
.L526:
	mvn	r2, #0
	mov	r0, #0
	strh	r2, [r3, r1]	@ movhi
	strh	r2, [r5, #2]	@ movhi
	ldmfd	sp!, {r4, r5, r6, pc}
.L529:
	.align	2
.L528:
	.word	.LANCHOR2
	.fnend
	.size	List_remove_node, .-List_remove_node
	.align	2
	.global	List_pop_index_node
	.type	List_pop_index_node, %function
List_pop_index_node:
	.fnstart
	@ args = 0, pretend = 0, frame = 0
	@ frame_needed = 0, uses_anonymous_args = 0
	stmfd	sp!, {r4, lr}
	.save {r4, lr}
	ldr	r3, [r0, #0]
	cmp	r3, #0
	beq	.L535
	ldr	r2, .L536
	movw	lr, #65535
	mov	ip, #6
	ldr	r4, [r2, #-2020]
	b	.L532
.L534:
	mla	r3, ip, r2, r4
	sub	r1, r1, #1
	uxth	r1, r1
.L532:
	cmp	r1, #0
	beq	.L533
	ldrh	r2, [r3, #0]
	cmp	r2, lr
	bne	.L534
.L533:
	rsb	r4, r4, r3
	ldr	r3, .L536+4
	mov	r4, r4, asr #1
	mul	r4, r3, r4
	uxth	r4, r4
	mov	r1, r4
	bl	List_remove_node
	mov	r0, r4
	ldmfd	sp!, {r4, pc}
.L535:
	movw	r0, #65535
	ldmfd	sp!, {r4, pc}
.L537:
	.align	2
.L536:
	.word	.LANCHOR2
	.word	-1431655765
	.fnend
	.size	List_pop_index_node, .-List_pop_index_node
	.align	2
	.global	List_get_gc_head_node
	.type	List_get_gc_head_node, %function
List_get_gc_head_node:
	.fnstart
	@ args = 0, pretend = 0, frame = 0
	@ frame_needed = 0, uses_anonymous_args = 0
	@ link register save eliminated.
	ldr	r2, .L544
	ldr	r3, [r2, #-2016]
	cmp	r3, #0
	beq	.L543
	ldr	r2, [r2, #-2020]
	movw	r1, #65535
	mov	ip, #6
	b	.L540
.L542:
	mla	r3, ip, r3, r2
	sub	r0, r0, #1
	uxth	r0, r0
.L540:
	cmp	r0, #0
	beq	.L541
	ldrh	r3, [r3, #0]
	cmp	r3, r1
	bne	.L542
	mov	r0, r1
	bx	lr
.L541:
	rsb	r3, r2, r3
	ldr	r0, .L544+4
	mov	r3, r3, asr #1
	mul	r0, r0, r3
	uxth	r0, r0
	bx	lr
.L543:
	movw	r0, #65535
	bx	lr
.L545:
	.align	2
.L544:
	.word	.LANCHOR2
	.word	-1431655765
	.fnend
	.size	List_get_gc_head_node, .-List_get_gc_head_node
	.align	2
	.global	List_update_data_list
	.type	List_update_data_list, %function
List_update_data_list:
	.fnstart
	@ args = 0, pretend = 0, frame = 0
	@ frame_needed = 0, uses_anonymous_args = 0
	stmfd	sp!, {r3, r4, r5, lr}
	.save {r3, r4, r5, lr}
	mov	r4, r0
	ldr	r3, .L553
	ldr	r2, .L553+4
	ldrh	r2, [r3, r2]
	cmp	r2, r0
	beq	.L547
	ldr	r2, .L553+8
	ldrh	r2, [r3, r2]
	cmp	r2, r0
	beq	.L547
	ldr	r2, .L553+12
	ldrh	r2, [r3, r2]
	cmp	r2, r0
	beq	.L547
	mov	r5, #6
	ldr	r2, [r3, #-2020]
	mul	r5, r5, r0
	ldr	r0, [r3, #-2016]
	add	r1, r2, r5
	cmp	r1, r0
	beq	.L547
	ldr	ip, [r3, #-2012]
	mov	r3, r4, asl #1
	ldrh	r0, [ip, r3]
	ldrh	r3, [r1, #4]
	cmp	r3, #0
	mulne	r0, r3, r0
	ldrh	r3, [r1, #2]
	mvneq	r0, #0
	movw	r1, #65535
	cmp	r3, r1
	bne	.L549
	ldrh	r1, [r2, r5]
	cmp	r1, r3
	beq	.L547
.L549:
	mov	r1, #6
	mla	r3, r1, r3, r2
	ldr	r1, .L553+16
	rsb	r2, r2, r3
	mov	r2, r2, asr #1
	ldrh	r3, [r3, #4]
	mul	r2, r1, r2
	cmp	r3, #0
	mvneq	r3, #0
	uxth	r2, r2
	mov	r2, r2, asl #1
	ldrh	r2, [ip, r2]
	mulne	r3, r3, r2
	cmp	r0, r3
	bcs	.L547
	ldr	r5, .L553
	mov	r1, r4
	sub	r0, r5, #2016
	bl	List_remove_node
	ldr	r3, .L553+20
	mov	r0, r4
	ldrh	r2, [r5, r3]
	sub	r2, r2, #1
	strh	r2, [r5, r3]	@ movhi
	bl	INSERT_DATA_LIST
.L547:
	mov	r0, #0
	ldmfd	sp!, {r3, r4, r5, pc}
.L554:
	.align	2
.L553:
	.word	.LANCHOR2
	.word	-1992
	.word	-1944
	.word	-1896
	.word	-1431655765
	.word	-2004
	.fnend
	.size	List_update_data_list, .-List_update_data_list
	.align	2
	.global	ftl_map_blk_alloc_new_blk
	.type	ftl_map_blk_alloc_new_blk, %function
ftl_map_blk_alloc_new_blk:
	.fnstart
	@ args = 0, pretend = 0, frame = 0
	@ frame_needed = 0, uses_anonymous_args = 0
	stmfd	sp!, {r3, r4, r5, r6, r7, lr}
	.save {r3, r4, r5, r6, r7, lr}
	mov	r4, r0
	ldrh	r2, [r0, #10]
	mov	r5, #0
	ldr	r3, [r0, #12]
	b	.L556
.L561:
	mov	r7, r3
	add	r3, r3, #2
	ldrh	r6, [r7, #0]
	cmp	r6, #0
	bne	.L557
	bl	FtlFreeSysBlkQueueOut
	movw	r3, #65533
	sub	r2, r0, #1
	mov	r1, r0
	strh	r0, [r7, #0]	@ movhi
	uxth	r2, r2
	cmp	r2, r3
	bls	.L558
	ldr	r2, .L562
	movw	r3, #4066
	ldr	r0, .L562+4
	ldrh	r2, [r2, r3]
	bl	printk
.L559:
	b	.L559
.L558:
	ldr	r3, [r4, #28]
	strh	r6, [r4, #2]	@ movhi
	add	r3, r3, #1
	str	r3, [r4, #28]
	ldrh	r3, [r4, #8]
	strh	r5, [r4, #0]	@ movhi
	add	r3, r3, #1
	strh	r3, [r4, #8]	@ movhi
	b	.L560
.L557:
	add	r5, r5, #1
	uxth	r5, r5
.L556:
	cmp	r5, r2
	bne	.L561
.L560:
	mov	r0, #0
	ldmfd	sp!, {r3, r4, r5, r6, r7, pc}
.L563:
	.align	2
.L562:
	.word	.LANCHOR0
	.word	.LC6
	.fnend
	.size	ftl_map_blk_alloc_new_blk, .-ftl_map_blk_alloc_new_blk
	.align	2
	.global	select_l2p_ram_region
	.type	select_l2p_ram_region, %function
select_l2p_ram_region:
	.fnstart
	@ args = 0, pretend = 0, frame = 0
	@ frame_needed = 0, uses_anonymous_args = 0
	ldr	r2, .L576
	movw	r3, #3958
	stmfd	sp!, {r4, r5, r6, r7, lr}
	.save {r4, r5, r6, r7, lr}
	movw	r1, #65535
	ldrh	r3, [r2, r3]
	ldr	r2, .L576+4
	ldr	ip, [r2, #-1848]
	mov	r2, #0
	mov	r0, r2
	b	.L565
.L567:
	add	r2, r2, #12
	add	r4, ip, r2
	ldrh	r4, [r4, #-12]
	cmp	r4, r1
	ldmeqfd	sp!, {r4, r5, r6, r7, pc}
	add	r0, r0, #1
	uxth	r0, r0
.L565:
	cmp	r0, r3
	bne	.L567
	mov	r1, #0
	mov	r0, r3
	mov	r5, #-2147483648
	mov	r2, r1
	b	.L568
.L570:
	add	r4, ip, r1
	ldr	r4, [r4, #4]
	cmp	r4, #0
	blt	.L569
	cmp	r4, r5
	movcc	r5, r4
	movcc	r0, r2
.L569:
	add	r2, r2, #1
	add	r1, r1, #12
	uxth	r2, r2
.L568:
	cmp	r2, r3
	bne	.L570
	cmp	r0, r3
	ldmccfd	sp!, {r4, r5, r6, r7, pc}
	ldr	r2, .L576+8
	mov	r0, r3
	ldr	r1, .L576+4
	mvn	r4, #0
	ldrh	r6, [r1, r2]
	mov	r2, #0
	mov	r1, r2
	b	.L571
.L573:
	add	r5, ip, r2
	ldr	r5, [r5, #4]
	cmp	r5, r4
	bcs	.L572
	ldrh	r7, [ip, r2]
	cmp	r7, r6
	movne	r4, r5
	movne	r0, r1
.L572:
	add	r1, r1, #1
	add	r2, r2, #12
	uxth	r1, r1
.L571:
	cmp	r1, r3
	bne	.L573
	ldmfd	sp!, {r4, r5, r6, r7, pc}
.L577:
	.align	2
.L576:
	.word	.LANCHOR0
	.word	.LANCHOR2
	.word	-1844
	.fnend
	.size	select_l2p_ram_region, .-select_l2p_ram_region
	.align	2
	.global	FtlUpdateVaildLpn
	.type	FtlUpdateVaildLpn, %function
FtlUpdateVaildLpn:
	.fnstart
	@ args = 0, pretend = 0, frame = 0
	@ frame_needed = 0, uses_anonymous_args = 0
	ldr	r3, .L584
	ldr	r2, .L584+4
	stmfd	sp!, {r4, r5, lr}
	.save {r4, r5, lr}
	ldrh	r1, [r2, r3]
	cmp	r1, #4
	add	ip, r1, #1
	mov	r1, r3
	strh	ip, [r2, r3]	@ movhi
	bhi	.L579
	cmp	r0, #0
	ldmeqfd	sp!, {r4, r5, pc}
.L579:
	ldr	r0, .L584+8
	mov	r3, #0
	strh	r3, [r2, r1]	@ movhi
	movw	r1, #3860
	str	r3, [r2, #-1840]
	movw	ip, #65535
	ldrh	r4, [r0, r1]
	ldr	r1, [r2, #-2012]
	ldr	r2, .L584+4
	b	.L581
.L583:
	ldrh	r0, [r1], #2
	add	r3, r3, #1
	cmp	r0, ip
	uxth	r3, r3
	ldrne	r5, [r2, #-1840]
	addne	r0, r0, r5
	strne	r0, [r2, #-1840]
.L581:
	cmp	r3, r4
	bne	.L583
	ldmfd	sp!, {r4, r5, pc}
.L585:
	.align	2
.L584:
	.word	-1842
	.word	.LANCHOR2
	.word	.LANCHOR0
	.fnend
	.size	FtlUpdateVaildLpn, .-FtlUpdateVaildLpn
	.align	2
	.global	ftl_set_blk_mode
	.type	ftl_set_blk_mode, %function
ftl_set_blk_mode:
	.fnstart
	@ args = 0, pretend = 0, frame = 0
	@ frame_needed = 0, uses_anonymous_args = 0
	@ link register save eliminated.
	ldr	r3, .L590
	mov	r2, r0, lsr #5
	cmp	r1, #0
	and	r0, r0, #31
	uxth	r2, r2
	mov	ip, #1
	ldr	r3, [r3, #-1836]
	ldr	r1, [r3, r2, asl #2]
	orrne	r0, r1, ip, asl r0
	biceq	r0, r1, ip, asl r0
	str	r0, [r3, r2, asl #2]
	bx	lr
.L591:
	.align	2
.L590:
	.word	.LANCHOR2
	.fnend
	.size	ftl_set_blk_mode, .-ftl_set_blk_mode
	.align	2
	.global	ftl_get_blk_mode
	.type	ftl_get_blk_mode, %function
ftl_get_blk_mode:
	.fnstart
	@ args = 0, pretend = 0, frame = 0
	@ frame_needed = 0, uses_anonymous_args = 0
	@ link register save eliminated.
	ldr	r3, .L593
	mov	r2, r0, lsr #5
	and	r0, r0, #31
	ldr	r3, [r3, #-1836]
	ldr	r3, [r3, r2, asl #2]
	mov	r0, r3, lsr r0
	and	r0, r0, #1
	bx	lr
.L594:
	.align	2
.L593:
	.word	.LANCHOR2
	.fnend
	.size	ftl_get_blk_mode, .-ftl_get_blk_mode
	.align	2
	.global	ftl_sb_update_avl_pages
	.type	ftl_sb_update_avl_pages, %function
ftl_sb_update_avl_pages:
	.fnstart
	@ args = 0, pretend = 0, frame = 0
	@ frame_needed = 0, uses_anonymous_args = 0
	ldr	ip, .L602
	mov	r3, #0
	strh	r3, [r0, #4]	@ movhi
	movw	r3, #3852
	stmfd	sp!, {r4, r5, r6, lr}
	.save {r4, r5, r6, lr}
	ldrh	r3, [ip, r3]
	movw	ip, #65535
	b	.L596
.L598:
	add	r4, r0, r2, asl #1
	add	r2, r2, #1
	ldrh	r4, [r4, #16]
	uxth	r2, r2
	cmp	r4, ip
	ldrneh	r4, [r0, #4]
	addne	r4, r4, #1
	strneh	r4, [r0, #4]	@ movhi
.L596:
	cmp	r2, r3
	bcc	.L598
	ldr	ip, .L602
	movw	r2, #3918
	movw	r4, #65535
	mvn	r1, r1
	ldrh	r5, [ip, r2]
	mov	ip, r0
	mov	r2, #0
	b	.L599
.L601:
	ldrh	r6, [ip, #16]
	add	r2, r2, #1
	add	ip, ip, #2
	cmp	r6, r4
	uxth	r2, r2
	ldrneh	r6, [r0, #4]
	addne	r6, r5, r6
	addne	r6, r6, r1
	strneh	r6, [r0, #4]	@ movhi
.L599:
	cmp	r2, r3
	bne	.L601
	ldmfd	sp!, {r4, r5, r6, pc}
.L603:
	.align	2
.L602:
	.word	.LANCHOR0
	.fnend
	.size	ftl_sb_update_avl_pages, .-ftl_sb_update_avl_pages
	.align	2
	.global	make_superblock
	.type	make_superblock, %function
make_superblock:
	.fnstart
	@ args = 0, pretend = 0, frame = 0
	@ frame_needed = 0, uses_anonymous_args = 0
	stmfd	sp!, {r4, r5, r6, r7, r8, r9, sl, lr}
	.save {r4, r5, r6, r7, r8, r9, sl, lr}
	mov	r4, r0
	mov	r5, #0
	ldr	r6, .L610
	strh	r5, [r0, #4]	@ movhi
	movw	r8, #3852
	strb	r5, [r4, #7]
	mvn	r7, #0
	b	.L605
.L607:
	add	r3, r6, r5
	ldrh	r1, [r4, #0]
	add	sl, r5, #8
	add	r5, r5, #1
	ldrb	r0, [r3, #3878]	@ zero_extendqisi2
	bl	V2P_block
	mov	sl, sl, asl #1
	uxth	r5, r5
	strh	r7, [r4, sl]	@ movhi
	mov	r9, r0
	bl	FtlBbmIsBadBlock
	cmp	r0, #0
	streqh	r9, [r4, sl]	@ movhi
	ldreqb	r3, [r4, #7]	@ zero_extendqisi2
	addeq	r3, r3, #1
	streqb	r3, [r4, #7]
.L605:
	ldrh	r2, [r6, r8]
	ldr	r3, .L610
	cmp	r2, r5
	bhi	.L607
	movw	r1, #3918
	ldrb	r2, [r4, #7]	@ zero_extendqisi2
	ldrh	r1, [r3, r1]
	mul	r2, r1, r2
	strh	r2, [r4, #4]	@ movhi
	mov	r2, #0
	strb	r2, [r4, #9]
	ldr	r2, [r3, #3844]
	cmp	r2, #0
	beq	.L608
	ldrh	r1, [r4, #0]
	ldr	r2, [r3, #4052]
	mov	r3, r1, asl #1
	ldrh	r3, [r2, r3]
	cmp	r3, #79
	movls	r3, #1
	strlsb	r3, [r4, #9]
.L608:
	ldr	r3, .L610
	mov	r0, #0
	ldrb	r3, [r3, #852]	@ zero_extendqisi2
	cmp	r3, #0
	movne	r3, #1
	strneb	r3, [r4, #9]
	ldmfd	sp!, {r4, r5, r6, r7, r8, r9, sl, pc}
.L611:
	.align	2
.L610:
	.word	.LANCHOR0
	.fnend
	.size	make_superblock, .-make_superblock
	.align	2
	.global	update_multiplier_value
	.type	update_multiplier_value, %function
update_multiplier_value:
	.fnstart
	@ args = 0, pretend = 0, frame = 0
	@ frame_needed = 0, uses_anonymous_args = 0
	stmfd	sp!, {r3, r4, r5, r6, r7, r8, sl, lr}
	.save {r3, r4, r5, r6, r7, r8, sl, lr}
	mov	r4, #0
	mov	r7, r0
	mov	r5, r4
	ldr	r6, .L617
	movw	sl, #3852
	movw	r8, #3918
	b	.L613
.L615:
	add	r3, r6, r5
	mov	r1, r7
	add	r5, r5, #1
	ldrb	r0, [r3, #3878]	@ zero_extendqisi2
	bl	V2P_block
	uxth	r5, r5
	bl	FtlBbmIsBadBlock
	cmp	r0, #0
	ldreqh	r3, [r6, r8]
	addeq	r4, r4, r3
	uxtheq	r4, r4
.L613:
	ldrh	r3, [r6, sl]
	cmp	r3, r5
	bhi	.L615
	cmp	r4, #0
	beq	.L616
	mov	r1, r4
	mov	r0, #32768
	bl	__aeabi_idiv
	uxth	r4, r0
.L616:
	ldr	r3, .L617+4
	mov	r2, #6
	mov	r0, #0
	ldr	r3, [r3, #-2020]
	mla	r7, r2, r7, r3
	strh	r4, [r7, #4]	@ movhi
	ldmfd	sp!, {r3, r4, r5, r6, r7, r8, sl, pc}
.L618:
	.align	2
.L617:
	.word	.LANCHOR0
	.word	.LANCHOR2
	.fnend
	.size	update_multiplier_value, .-update_multiplier_value
	.align	2
	.global	GetFreeBlockMinEraseCount
	.type	GetFreeBlockMinEraseCount, %function
GetFreeBlockMinEraseCount:
	.fnstart
	@ args = 0, pretend = 0, frame = 0
	@ frame_needed = 0, uses_anonymous_args = 0
	@ link register save eliminated.
	ldr	r3, .L622
	ldr	r0, [r3, #-2000]
	cmp	r0, #0
	bxeq	lr
	ldr	r3, [r3, #-2020]
	ldr	r2, .L622+4
	rsb	r0, r3, r0
	ldr	r3, .L622+8
	mov	r0, r0, asr #1
	ldr	r2, [r2, #4052]
	mul	r3, r3, r0
	uxth	r3, r3
	mov	r3, r3, asl #1
	ldrh	r0, [r2, r3]
	bx	lr
.L623:
	.align	2
.L622:
	.word	.LANCHOR2
	.word	.LANCHOR0
	.word	-1431655765
	.fnend
	.size	GetFreeBlockMinEraseCount, .-GetFreeBlockMinEraseCount
	.align	2
	.global	GetFreeBlockMaxEraseCount
	.type	GetFreeBlockMaxEraseCount, %function
GetFreeBlockMaxEraseCount:
	.fnstart
	@ args = 0, pretend = 0, frame = 0
	@ frame_needed = 0, uses_anonymous_args = 0
	ldr	r2, .L631
	stmfd	sp!, {r4, r5, lr}
	.save {r4, r5, lr}
	ldr	r3, [r2, #-2000]
	cmp	r3, #0
	beq	.L630
	ldr	r1, .L631+4
	mov	ip, #7
	mov	r5, #6
	movw	r4, #65535
	ldrh	r1, [r2, r1]
	mul	r1, ip, r1
	mov	r1, r1, asr #3
	cmp	r0, r1
	uxthgt	r0, r1
	ldr	r1, [r2, #-2020]
	ldr	r2, .L631+8
	rsb	r3, r1, r3
	mov	r3, r3, asr #1
	mul	r3, r2, r3
	mov	r2, #0
	uxth	r3, r3
	b	.L627
.L629:
	mul	ip, r5, r3
	ldrh	ip, [r1, ip]
	cmp	ip, r4
	beq	.L628
	add	r2, r2, #1
	mov	r3, ip
	uxth	r2, r2
.L627:
	cmp	r2, r0
	bne	.L629
.L628:
	ldr	r2, .L631+12
	mov	r3, r3, asl #1
	ldr	r2, [r2, #4052]
	ldrh	r0, [r2, r3]
	ldmfd	sp!, {r4, r5, pc}
.L630:
	mov	r0, r3
	ldmfd	sp!, {r4, r5, pc}
.L632:
	.align	2
.L631:
	.word	.LANCHOR2
	.word	-1996
	.word	-1431655765
	.word	.LANCHOR0
	.fnend
	.size	GetFreeBlockMaxEraseCount, .-GetFreeBlockMaxEraseCount
	.align	2
	.global	FtlPrintInfo2buf
	.type	FtlPrintInfo2buf, %function
FtlPrintInfo2buf:
	.fnstart
	@ args = 0, pretend = 0, frame = 16
	@ frame_needed = 0, uses_anonymous_args = 0
	stmfd	sp!, {r4, r5, r6, r7, r8, r9, sl, lr}
	.save {r4, r5, r6, r7, r8, r9, sl, lr}
	mov	sl, r0
	ldr	r6, .L643
	add	r4, sl, #12
	.pad #32
	sub	sp, sp, #32
	ldr	r1, .L643+4
	bl	strcpy
	mov	r0, r4
	ldr	r1, .L643+8
	ldr	r2, [r6, #3044]
	bl	sprintf
	ldr	r1, .L643+12
	ldr	r2, [r6, #3936]
	add	r4, r4, r0
	mov	r0, r4
	bl	sprintf
	ldr	r3, .L643+16
	ldr	r3, [r3, #3220]
	cmp	r3, #1
	add	r4, r4, r0
	bne	.L639
.L634:
	add	r0, sp, #16
	add	r1, sp, #20
	add	r2, sp, #24
	add	r3, sp, #28
	bl	NandcGetTimeCfg
	ldr	r3, [sp, #24]
	ldr	r2, [sp, #16]
	mov	r0, r4
	ldr	r1, .L643+20
	str	r3, [sp, #0]
	ldr	r3, [sp, #28]
	ldr	r5, .L643+24
	ldr	r7, .L643+28
	str	r3, [sp, #4]
	ldr	r3, [sp, #20]
	bl	sprintf
	ldr	r1, .L643+32
	ldr	r8, .L643+36
	add	r4, r4, r0
	mov	r0, r4
	add	r4, r4, #10
	bl	strcpy
	ldr	r1, .L643+40
	mov	r0, r4
	ldr	r2, [r6, #3980]
	bl	sprintf
	ldr	r1, .L643+44
	ldr	r2, [r5, #-1840]
	add	r4, r4, r0
	mov	r0, r4
	bl	sprintf
	ldr	r1, .L643+48
	ldr	r2, [r5, #-1832]
	add	r4, r4, r0
	mov	r0, r4
	bl	sprintf
	ldr	r1, .L643+52
	ldr	r2, [r5, #-1828]
	add	r4, r4, r0
	mov	r0, r4
	bl	sprintf
	ldr	r1, .L643+56
	ldr	r2, [r5, #-1824]
	add	r4, r4, r0
	mov	r0, r4
	bl	sprintf
	ldr	r1, .L643+60
	ldr	r2, [r5, #-1820]
	add	r4, r4, r0
	mov	r0, r4
	bl	sprintf
	ldr	r1, .L643+64
	ldr	r2, [r5, #-1816]
	add	r4, r4, r0
	mov	r0, r4
	bl	sprintf
	ldr	r1, .L643+68
	ldr	r2, [r5, #-1812]
	add	r4, r4, r0
	mov	r0, r4
	bl	sprintf
	ldr	r2, [r5, #-1808]
	ldr	r1, .L643+72
	mov	r2, r2, lsr #11
	add	r4, r4, r0
	mov	r0, r4
	bl	sprintf
	ldr	r2, [r5, #-1804]
	ldr	r1, .L643+76
	mov	r2, r2, lsr #11
	add	r4, r4, r0
	mov	r0, r4
	bl	sprintf
	ldr	r1, .L643+80
	ldr	r2, [r5, #-1800]
	add	r4, r4, r0
	mov	r0, r4
	bl	sprintf
	ldr	r1, .L643+84
	ldr	r2, [r5, #-1796]
	add	r4, r4, r0
	mov	r0, r4
	bl	sprintf
	add	r4, r4, r0
	bl	FtlBbtCalcTotleCnt
	movw	r2, #3990
	ldr	r1, .L643+88
	ldrh	r2, [r6, r2]
	mov	r3, r0
	mov	r0, r4
	bl	sprintf
	ldr	r1, .L643+92
	ldrh	r2, [r5, r7]
	add	r4, r4, r0
	mov	r0, r4
	bl	sprintf
	ldr	r1, .L643+96
	ldr	r2, [r5, #-1792]
	add	r4, r4, r0
	mov	r0, r4
	bl	sprintf
	ldr	r1, .L643+100
	ldr	r2, [r5, #-1788]
	add	r4, r4, r0
	mov	r0, r4
	bl	sprintf
	ldr	r1, .L643+104
	ldr	r2, [r5, #-1784]
	add	r4, r4, r0
	mov	r0, r4
	bl	sprintf
	ldr	r1, .L643+108
	ldr	r2, [r6, #4056]
	add	r4, r4, r0
	mov	r0, r4
	bl	sprintf
	ldr	r1, .L643+112
	ldr	r2, [r5, #-1780]
	add	r4, r4, r0
	mov	r0, r4
	bl	sprintf
	ldr	r1, .L643+116
	ldr	r2, [r5, #-1776]
	add	r4, r4, r0
	mov	r0, r4
	bl	sprintf
	ldr	r3, .L643+120
	ldr	r1, .L643+124
	ldrh	r2, [r5, r3]
	add	r4, r4, r0
	mov	r0, r4
	bl	sprintf
	ldr	r3, .L643+128
	ldr	r1, .L643+132
	ldrh	r2, [r5, r3]
	add	r4, r4, r0
	mov	r0, r4
	bl	sprintf
	ldr	r1, .L643+136
	ldr	r2, [r6, #3960]
	add	r4, r4, r0
	mov	r0, r4
	bl	sprintf
	ldr	r1, .L643+140
	ldr	r2, [r6, #3952]
	add	r4, r4, r0
	mov	r0, r4
	bl	sprintf
	ldr	r1, .L643+144
	ldr	r2, [r6, #3848]
	add	r4, r4, r0
	mov	r0, r4
	bl	sprintf
	movw	r3, #4066
	ldrh	r2, [r6, r3]
	ldr	r1, .L643+148
	add	r4, r4, r0
	mov	r0, r4
	bl	sprintf
	movw	r3, #3860
	ldrh	r2, [r6, r3]
	ldr	r1, .L643+152
	add	r4, r4, r0
	mov	r0, r4
	bl	sprintf
	ldr	r3, .L643+156
	ldr	r1, .L643+160
	ldrh	r2, [r5, r3]
	add	r4, r4, r0
	mov	r0, r4
	bl	sprintf
	ldr	r1, .L643+164
	ldr	r2, [r6, #3864]
	add	r4, r4, r0
	mov	r0, r4
	bl	sprintf
	ldr	r3, .L643+168
	ldr	r1, .L643+172
	ldrh	r2, [r5, r3]
	add	r4, r4, r0
	mov	r0, r4
	bl	sprintf
	mov	r3, #3984
	ldrh	r2, [r6, r3]
	ldr	r1, .L643+176
	add	r4, r4, r0
	mov	r0, r4
	bl	sprintf
	ldr	r3, .L643+180
	ldr	r1, .L643+184
	ldrh	r2, [r5, r3]
	add	r4, r4, r0
	mov	r0, r4
	bl	sprintf
	ldr	r1, .L643+188
	ldrb	r2, [r5, #-1986]	@ zero_extendqisi2
	add	r4, r4, r0
	mov	r0, r4
	bl	sprintf
	ldrh	r2, [r5, r8]
	ldr	r1, .L643+192
	add	r4, r4, r0
	mov	r0, r4
	bl	sprintf
	ldr	r1, .L643+196
	ldrb	r2, [r5, #-1984]	@ zero_extendqisi2
	add	r4, r4, r0
	mov	r0, r4
	bl	sprintf
	ldr	r3, .L643+200
	ldr	r1, .L643+204
	ldrh	r2, [r5, r3]
	add	r4, r4, r0
	mov	r0, r4
	bl	sprintf
	ldrh	r3, [r5, r8]
	ldr	r2, [r5, #-2012]
	add	r8, r8, #48
	ldr	r1, .L643+208
	mov	r3, r3, asl #1
	ldrh	r2, [r2, r3]
	add	r4, r4, r0
	mov	r0, r4
	bl	sprintf
	ldr	r3, .L643+212
	ldr	r1, .L643+216
	ldrh	r2, [r5, r3]
	add	r4, r4, r0
	mov	r0, r4
	bl	sprintf
	ldr	r1, .L643+220
	ldrb	r2, [r5, #-1938]	@ zero_extendqisi2
	add	r4, r4, r0
	mov	r0, r4
	bl	sprintf
	ldrh	r2, [r5, r8]
	ldr	r1, .L643+224
	add	r4, r4, r0
	mov	r0, r4
	bl	sprintf
	ldr	r1, .L643+228
	ldrb	r2, [r5, #-1936]	@ zero_extendqisi2
	add	r4, r4, r0
	mov	r0, r4
	bl	sprintf
	ldr	r3, .L643+232
	ldr	r1, .L643+236
	ldrh	r2, [r5, r3]
	add	r4, r4, r0
	mov	r0, r4
	bl	sprintf
	ldrh	r3, [r5, r8]
	ldr	r2, [r5, #-2012]
	add	r8, r8, #192
	ldr	r1, .L643+240
	mov	r3, r3, asl #1
	ldrh	r2, [r2, r3]
	add	r4, r4, r0
	mov	r0, r4
	bl	sprintf
	ldr	r3, .L643+244
	ldr	r1, .L643+248
	ldrh	r2, [r5, r3]
	add	r4, r4, r0
	mov	r0, r4
	bl	sprintf
	ldr	r1, .L643+252
	ldrb	r2, [r5, #-1890]	@ zero_extendqisi2
	add	r4, r4, r0
	mov	r0, r4
	bl	sprintf
	ldr	r3, .L643+256
	ldr	r1, .L643+260
	ldrh	r2, [r5, r3]
	add	r4, r4, r0
	mov	r0, r4
	bl	sprintf
	ldr	r1, .L643+264
	ldrb	r2, [r5, #-1888]	@ zero_extendqisi2
	add	r4, r4, r0
	mov	r0, r4
	bl	sprintf
	ldr	r3, .L643+268
	ldr	r1, .L643+272
	ldrh	r2, [r5, r3]
	add	r4, r4, r0
	mov	r0, r4
	bl	sprintf
	ldr	r3, .L643+276
	ldr	r1, .L643+280
	ldrh	r2, [r5, r3]
	add	r4, r4, r0
	mov	r0, r4
	bl	sprintf
	ldr	r1, .L643+284
	ldrb	r2, [r5, #-1746]	@ zero_extendqisi2
	add	r4, r4, r0
	mov	r0, r4
	bl	sprintf
	ldr	r1, .L643+288
	ldrh	r2, [r5, r8]
	add	r4, r4, r0
	mov	r0, r4
	bl	sprintf
	ldr	r1, .L643+292
	ldrb	r2, [r5, #-1744]	@ zero_extendqisi2
	add	r4, r4, r0
	mov	r0, r4
	bl	sprintf
	ldr	r3, .L643+296
	ldr	r1, .L643+300
	ldrh	r2, [r5, r3]
	add	r4, r4, r0
	mov	r0, r4
	bl	sprintf
	ldr	r1, [r5, #-1616]
	ldr	r3, [r6, #3844]
	ldr	r2, [r5, #-1704]
	str	r1, [sp, #0]
	ldr	r1, [r5, #-1624]
	orr	r2, r3, r2, asl #8
	str	r1, [sp, #4]
	ldr	r1, .L643+304
	ldr	r3, [r5, #-1620]
	add	r4, r4, r0
	mov	r0, r4
	bl	sprintf
	ldr	r1, .L643+308
	ldr	r2, [r5, #-1628]
	add	r4, r4, r0
	mov	r0, r4
	bl	sprintf
	ldr	r1, .L643+312
	ldr	r2, [r5, #-1604]
	add	r4, r4, r0
	mov	r0, r4
	bl	sprintf
	ldr	r3, .L643+316
	ldr	r1, .L643+320
	ldrh	r2, [r5, r3]
	add	r4, r4, r0
	mov	r0, r4
	bl	sprintf
	ldr	r3, .L643+324
	ldr	r1, .L643+328
	ldrh	r2, [r5, r3]
	add	r4, r4, r0
	mov	r0, r4
	bl	sprintf
	ldr	r1, .L643+332
	ldr	r2, [r5, #-1184]
	add	r4, r4, r0
	mov	r0, r4
	bl	sprintf
	ldr	r3, .L643+336
	ldr	r1, .L643+340
	ldrh	r2, [r5, r3]
	add	r4, r4, r0
	mov	r0, r4
	bl	sprintf
	add	r4, r4, r0
	bl	GetFreeBlockMinEraseCount
	ldr	r1, .L643+344
	mov	r2, r0
	mov	r0, r4
	bl	sprintf
	add	r4, r4, r0
	ldrh	r0, [r5, r7]
	bl	GetFreeBlockMaxEraseCount
	ldr	r1, .L643+348
	mov	r2, r0
	mov	r0, r4
	bl	sprintf
	ldrh	r3, [r5, r8]
	movw	r2, #65535
	cmp	r3, r2
	add	r4, r4, r0
	beq	.L636
	ldr	r2, [r5, #-2012]
	mov	r3, r3, asl #1
	mov	r0, r4
	ldr	r1, .L643+352
	ldrh	r2, [r2, r3]
	bl	sprintf
	add	r4, r4, r0
.L636:
	mov	r0, #0
	ldr	r6, .L643+24
	bl	List_get_gc_head_node
	ldr	r8, .L643
	mov	r5, #0
	movw	r9, #65535
	uxth	r3, r0
.L638:
	cmp	r3, r9
	beq	.L637
	ldr	r1, [r6, #-2012]
	mov	r2, r3, asl #1
	mov	r7, #6
	mov	r0, r4
	mul	r7, r7, r3
	ldrh	r1, [r1, r2]
	str	r1, [sp, #0]
	ldr	r1, [r6, #-2020]
	add	r1, r1, r7
	ldrh	r1, [r1, #4]
	str	r1, [sp, #4]
	ldr	r1, [r8, #4052]
	ldrh	r2, [r1, r2]
	ldr	r1, .L643+356
	str	r2, [sp, #8]
	mov	r2, r5
	bl	sprintf
	add	r5, r5, #1
	ldr	r3, [r6, #-2020]
	cmp	r5, #16
	ldrh	r3, [r3, r7]
	add	r4, r4, r0
	bne	.L638
.L637:
	ldr	r6, .L643+24
	mov	r5, #0
	ldr	r8, .L643
	movw	r9, #65535
	ldr	r2, [r6, #-2000]
	ldr	r3, [r6, #-2020]
	rsb	r3, r3, r2
	ldr	r2, .L643+360
	mov	r3, r3, asr #1
	mul	r3, r2, r3
	uxth	r3, r3
.L640:
	cmp	r3, r9
	beq	.L639
	mov	r7, #6
	ldr	r2, [r6, #-2020]
	mul	r7, r7, r3
	mov	r0, r4
	add	r2, r2, r7
	ldrh	r2, [r2, #4]
	str	r2, [sp, #0]
	mov	r2, r3, asl #1
	ldr	r1, [r8, #4052]
	ldrh	r2, [r1, r2]
	ldr	r1, .L643+364
	str	r2, [sp, #4]
	mov	r2, r5
	bl	sprintf
	add	r5, r5, #1
	ldr	r3, [r6, #-2020]
	cmp	r5, #4
	ldrh	r3, [r3, r7]
	add	r4, r4, r0
	bne	.L640
.L639:
	rsb	r0, sl, r4
	add	sp, sp, #32
	ldmfd	sp!, {r4, r5, r6, r7, r8, r9, sl, pc}
.L644:
	.align	2
.L643:
	.word	.LANCHOR0
	.word	.LC7
	.word	.LC8
	.word	.LC9
	.word	.LANCHOR1
	.word	.LC10
	.word	.LANCHOR2
	.word	-1996
	.word	.LC11
	.word	-1992
	.word	.LC12
	.word	.LC13
	.word	.LC14
	.word	.LC15
	.word	.LC16
	.word	.LC17
	.word	.LC18
	.word	.LC19
	.word	.LC20
	.word	.LC21
	.word	.LC22
	.word	.LC23
	.word	.LC24
	.word	.LC25
	.word	.LC26
	.word	.LC27
	.word	.LC28
	.word	.LC29
	.word	.LC30
	.word	.LC31
	.word	-2038
	.word	.LC32
	.word	-2040
	.word	.LC33
	.word	.LC34
	.word	.LC35
	.word	.LC36
	.word	.LC37
	.word	.LC38
	.word	-1772
	.word	.LC39
	.word	.LC40
	.word	-1768
	.word	.LC41
	.word	.LC42
	.word	-1990
	.word	.LC43
	.word	.LC44
	.word	.LC45
	.word	.LC46
	.word	-1988
	.word	.LC47
	.word	.LC48
	.word	-1942
	.word	.LC49
	.word	.LC50
	.word	.LC51
	.word	.LC52
	.word	-1940
	.word	.LC53
	.word	.LC54
	.word	-1894
	.word	.LC55
	.word	.LC56
	.word	-1896
	.word	.LC57
	.word	.LC58
	.word	-1892
	.word	.LC59
	.word	-1750
	.word	.LC60
	.word	.LC61
	.word	.LC62
	.word	.LC63
	.word	-1748
	.word	.LC64
	.word	.LC65
	.word	.LC66
	.word	.LC67
	.word	-1188
	.word	.LC68
	.word	-1186
	.word	.LC69
	.word	.LC70
	.word	-1180
	.word	.LC71
	.word	.LC72
	.word	.LC73
	.word	.LC74
	.word	.LC75
	.word	-1431655765
	.word	.LC76
	.fnend
	.size	FtlPrintInfo2buf, .-FtlPrintInfo2buf
	.align	2
	.global	ftl_proc_ftl_read
	.type	ftl_proc_ftl_read, %function
ftl_proc_ftl_read:
	.fnstart
	@ args = 0, pretend = 0, frame = 0
	@ frame_needed = 0, uses_anonymous_args = 0
	stmfd	sp!, {r3, r4, r5, lr}
	.save {r3, r4, r5, lr}
	mov	r4, r0
	ldr	r1, .L646
	ldr	r2, .L646+4
	bl	sprintf
	add	r5, r4, r0
	mov	r0, r5
	bl	FtlPrintInfo2buf
	add	r0, r5, r0
	rsb	r0, r4, r0
	ldmfd	sp!, {r3, r4, r5, pc}
.L647:
	.align	2
.L646:
	.word	.LC77
	.word	.LC78
	.fnend
	.size	ftl_proc_ftl_read, .-ftl_proc_ftl_read
	.align	2
	.global	GetSwlReplaceBlock
	.type	GetSwlReplaceBlock, %function
GetSwlReplaceBlock:
	.fnstart
	@ args = 0, pretend = 0, frame = 0
	@ frame_needed = 0, uses_anonymous_args = 0
	ldr	r3, .L673
	stmfd	sp!, {r4, r5, r6, r7, r8, r9, sl, fp, lr}
	.save {r4, r5, r6, r7, r8, r9, sl, fp, lr}
	.pad #20
	sub	sp, sp, #20
	ldr	r1, [r3, #-1784]
	ldr	r2, [r3, #-1776]
	cmp	r1, r2
	bcs	.L649
	ldr	r0, .L673+4
	movw	r1, #3860
	mov	r2, #0
	str	r2, [r3, #-1792]
	ldrh	r1, [r0, r1]
	ldr	r0, [r0, #4052]
	b	.L650
.L651:
	ldrh	lr, [r0], #2
	add	r2, r2, #1
	ldr	ip, [r3, #-1792]
	add	ip, lr, ip
	str	ip, [r3, #-1792]
.L650:
	cmp	r2, r1
	ldr	r4, .L673
	bcc	.L651
	ldr	r5, [r4, #-1792]
	mov	r0, r5
	bl	__aeabi_uidiv
	ldr	r2, .L673+4
	movw	r3, #3910
	ldrh	r1, [r2, r3]
	str	r0, [r4, #-1784]
	ldr	r0, [r4, #-1788]
	rsb	r0, r0, r5
	bl	__aeabi_uidiv
	str	r0, [r4, #-1792]
	b	.L652
.L649:
	ldr	r2, [r3, #-1780]
	cmp	r1, r2
	bls	.L652
	add	r2, r2, #1
	movw	ip, #3860
	str	r2, [r3, #-1780]
	mov	r3, #0
	ldr	r2, .L673+4
	b	.L653
.L654:
	ldr	r0, [r2, #4052]
	mov	r1, r3, asl #1
	add	r3, r3, #1
	ldrh	r4, [r0, r1]
	add	r4, r4, #1
	strh	r4, [r0, r1]	@ movhi
.L653:
	ldrh	r1, [r2, ip]
	cmp	r3, r1
	bcc	.L654
.L652:
	ldr	r3, .L673
	ldr	r6, [r3, #-1776]
	ldr	r5, [r3, #-1784]
	add	r2, r6, #256
	cmp	r2, r5
	mov	r2, r3
	bls	.L655
	ldr	r3, [r3, #-1780]
	add	r1, r6, #768
	cmp	r1, r3
	bls	.L655
	ldr	r3, .L673+4
	ldr	r3, [r3, #3844]
	cmp	r3, #0
	beq	.L672
	cmp	r6, #40
	bhi	.L672
.L655:
	ldr	r3, .L673+8
	ldrh	r0, [r2, r3]
	add	r0, r0, r0, asl #1
	ubfx	r0, r0, #2, #16
	bl	GetFreeBlockMaxEraseCount
	add	r3, r6, #64
	cmp	r0, r3
	mov	r8, r0
	bcs	.L657
	cmp	r6, #40
	bhi	.L672
.L657:
	ldr	r1, .L673
	ldr	r3, [r1, #-2016]
	cmp	r3, #0
	beq	.L672
	ldr	r2, .L673+4
	movw	r0, #3860
	movw	r7, #65535
	mov	r4, r7
	mov	fp, r7
	ldrh	sl, [r2, r0]
	ldr	r0, [r1, #-2020]
	ldr	r1, [r2, #4052]
	mov	r2, #0
	b	.L658
.L661:
	add	r2, r2, #1
	uxth	r2, r2
	cmp	r2, sl
	bhi	.L672
	ldrh	ip, [r3, #4]
	cmp	ip, #0
	beq	.L659
	rsb	r3, r0, r3
	ldr	ip, .L673+12
	mov	r3, r3, asr #1
	mul	r3, ip, r3
	uxth	r3, r3
	mov	ip, r3, asl #1
	ldrh	ip, [r1, ip]
	cmp	ip, r6
	bls	.L669
	cmp	ip, r7
	movcc	r7, ip
	movcc	r4, r3
.L659:
	mov	ip, #6
	mla	r3, ip, r9, r0
.L658:
	ldrh	r9, [r3, #0]
	cmp	r9, fp
	bne	.L661
	b	.L660
.L669:
	mov	r4, r3
.L660:
	movw	r3, #65535
	cmp	r4, r3
	beq	.L656
	mov	r9, r4, asl #1
	ldrh	sl, [r1, r9]
	cmp	sl, r6
	bls	.L662
	bl	GetFreeBlockMinEraseCount
	cmp	r0, r6
	ldrhi	r3, .L673
	strhi	r7, [r3, #-1776]
.L662:
	cmp	sl, r5
	bcs	.L672
	add	r3, sl, #128
	cmp	r8, r3
	ble	.L672
	add	r3, sl, #256
	ldr	r6, .L673
	cmp	r3, r5
	bcc	.L663
	ldr	r3, [r6, #-1780]
	add	sl, sl, #768
	cmp	sl, r3
	bcs	.L672
.L663:
	ldr	r3, [r6, #-2012]
	mov	r1, r4
	ldr	r0, .L673+16
	mov	r2, r5
	ldrh	r3, [r3, r9]
	str	r3, [sp, #0]
	ldr	r3, .L673+4
	ldr	r3, [r3, #4052]
	ldrh	r3, [r3, r9]
	stmib	sp, {r3, r8}
	ldr	r3, [r6, #-1780]
	bl	printk
	mov	r3, #1
	str	r3, [r6, #-1176]
	b	.L656
.L672:
	movw	r4, #65535
.L656:
	mov	r0, r4
	add	sp, sp, #20
	ldmfd	sp!, {r4, r5, r6, r7, r8, r9, sl, fp, pc}
.L674:
	.align	2
.L673:
	.word	.LANCHOR2
	.word	.LANCHOR0
	.word	-1996
	.word	-1431655765
	.word	.LC79
	.fnend
	.size	GetSwlReplaceBlock, .-GetSwlReplaceBlock
	.align	2
	.global	free_data_superblock
	.type	free_data_superblock, %function
free_data_superblock:
	.fnstart
	@ args = 0, pretend = 0, frame = 0
	@ frame_needed = 0, uses_anonymous_args = 0
	movw	r2, #65535
	cmp	r0, r2
	stmfd	sp!, {r3, lr}
	.save {r3, lr}
	beq	.L676
	ldr	r2, .L677
	mov	r3, r0, asl #1
	mov	r1, #0
	ldr	r2, [r2, #-2012]
	strh	r1, [r2, r3]	@ movhi
	bl	INSERT_FREE_LIST
.L676:
	mov	r0, #0
	ldmfd	sp!, {r3, pc}
.L678:
	.align	2
.L677:
	.word	.LANCHOR2
	.fnend
	.size	free_data_superblock, .-free_data_superblock
	.align	2
	.global	FtlGcBufInit
	.type	FtlGcBufInit, %function
FtlGcBufInit:
	.fnstart
	@ args = 0, pretend = 0, frame = 0
	@ frame_needed = 0, uses_anonymous_args = 0
	ldr	r2, .L687
	mov	r3, #0
	stmfd	sp!, {r4, r5, r6, r7, r8, r9, sl, fp, lr}
	.save {r4, r5, r6, r7, r8, r9, sl, fp, lr}
	movw	sl, #3852
	str	r3, [r2, #-1172]
	mov	r8, #12
	ldr	r0, .L687+4
	mov	r7, #1
	movw	r6, #3928
	movw	fp, #3930
	b	.L680
.L681:
	mul	r1, r8, r3
	ldr	r4, [r2, #-1168]
	add	ip, r4, r1
	str	r7, [ip, #8]
	ldrh	ip, [r0, r6]
	mul	ip, ip, r3
	add	r5, ip, #3
	cmp	ip, #0
	movlt	ip, r5
	ldr	r5, [r2, #-1164]
	bic	ip, ip, #3
	add	ip, r5, ip
	str	ip, [r4, r1]
	ldrh	ip, [r0, fp]
	ldr	r9, [r2, #-1168]
	mul	ip, ip, r3
	add	r4, r9, r1
	add	r5, ip, #3
	cmp	ip, #0
	movlt	ip, r5
	ldr	r5, [r2, #-1160]
	bic	ip, ip, #3
	add	ip, r5, ip
	str	ip, [r4, #4]
	ldr	ip, [r2, #-1156]
	mov	r5, #36
	ldr	r1, [r9, r1]
	mla	ip, r5, r3, ip
	add	r3, r3, #1
	uxth	r3, r3
	str	r1, [ip, #8]
	ldr	r1, [r4, #4]
	str	r1, [ip, #12]
.L680:
	ldrh	r1, [r0, sl]
	cmp	r3, r1
	bcc	.L681
	b	.L686
.L683:
	mul	r2, r8, r1
	ldr	r4, [r3, #-1168]
	add	r0, r4, r2
	str	r7, [r0, #8]
	ldrh	r0, [ip, r6]
	mul	r0, r0, r1
	add	sl, r0, #3
	cmp	r0, #0
	movlt	r0, sl
	ldr	sl, [r3, #-1164]
	bic	r0, r0, #3
	add	r0, sl, r0
	str	r0, [r4, r2]
	ldr	r0, [r3, #-1168]
	add	r0, r0, r2
	ldrh	r2, [ip, r5]
	mul	r2, r2, r1
	add	r1, r1, #1
	uxth	r1, r1
	add	r4, r2, #3
	cmp	r2, #0
	movlt	r2, r4
	ldr	r4, [r3, #-1160]
	bic	r2, r2, #3
	add	r2, r4, r2
	str	r2, [r0, #4]
	b	.L685
.L686:
	ldr	r3, .L687
	mov	r8, #12
	ldr	ip, .L687+4
	mov	r7, #0
	movw	r6, #3928
	movw	r5, #3930
.L685:
	ldr	r2, [r3, #-1152]
	cmp	r1, r2
	bcc	.L683
	ldmfd	sp!, {r4, r5, r6, r7, r8, r9, sl, fp, pc}
.L688:
	.align	2
.L687:
	.word	.LANCHOR2
	.word	.LANCHOR0
	.fnend
	.size	FtlGcBufInit, .-FtlGcBufInit
	.align	2
	.global	FtlGcBufFree
	.type	FtlGcBufFree, %function
FtlGcBufFree:
	.fnstart
	@ args = 0, pretend = 0, frame = 0
	@ frame_needed = 0, uses_anonymous_args = 0
	ldr	r3, .L696
	stmfd	sp!, {r4, r5, r6, r7, r8, r9, sl, fp, lr}
	.save {r4, r5, r6, r7, r8, r9, sl, fp, lr}
	mov	r5, #36
	ldr	r6, [r3, #-1152]
	mov	fp, #12
	ldr	ip, [r3, #-1168]
	mov	r3, #0
	mov	r4, r3
	b	.L690
.L693:
	mul	sl, fp, r2
	add	r8, ip, sl
	ldr	r9, [ip, sl]
	ldr	sl, [r7, #8]
	cmp	r9, sl
	streq	r4, [r8, #8]
	beq	.L692
.L691:
	add	r2, r2, #1
	uxth	r2, r2
.L695:
	cmp	r2, r6
	bcc	.L693
.L692:
	add	r3, r3, #1
	uxth	r3, r3
.L690:
	cmp	r3, r1
	ldmcsfd	sp!, {r4, r5, r6, r7, r8, r9, sl, fp, pc}
	mla	r7, r5, r3, r0
	mov	r2, #0
	b	.L695
.L697:
	.align	2
.L696:
	.word	.LANCHOR2
	.fnend
	.size	FtlGcBufFree, .-FtlGcBufFree
	.align	2
	.global	FtlGcBufAlloc
	.type	FtlGcBufAlloc, %function
FtlGcBufAlloc:
	.fnstart
	@ args = 0, pretend = 0, frame = 0
	@ frame_needed = 0, uses_anonymous_args = 0
	ldr	r3, .L705
	stmfd	sp!, {r4, r5, r6, r7, r8, sl, lr}
	.save {r4, r5, r6, r7, r8, sl, lr}
	mov	r6, #12
	ldr	r8, [r3, #-1152]
	mov	r5, #1
	ldr	r7, [r3, #-1168]
	mov	r4, #36
	mov	r3, #0
	b	.L699
.L702:
	mla	ip, r6, r2, r7
	ldr	sl, [ip, #8]
	cmp	sl, #0
	bne	.L700
	mla	r2, r4, r3, r0
	ldr	sl, [ip, #0]
	str	r5, [ip, #8]
	str	sl, [r2, #8]
	ldr	ip, [ip, #4]
	str	ip, [r2, #12]
	b	.L701
.L700:
	add	r2, r2, #1
	uxth	r2, r2
	b	.L703
.L704:
	mov	r2, #0
.L703:
	cmp	r2, r8
	bcc	.L702
.L701:
	add	r3, r3, #1
	uxth	r3, r3
.L699:
	cmp	r3, r1
	bcc	.L704
	ldmfd	sp!, {r4, r5, r6, r7, r8, sl, pc}
.L706:
	.align	2
.L705:
	.word	.LANCHOR2
	.fnend
	.size	FtlGcBufAlloc, .-FtlGcBufAlloc
	.align	2
	.global	IsBlkInGcList
	.type	IsBlkInGcList, %function
IsBlkInGcList:
	.fnstart
	@ args = 0, pretend = 0, frame = 0
	@ frame_needed = 0, uses_anonymous_args = 0
	@ link register save eliminated.
	ldr	r3, .L712
	ldr	r2, .L712+4
	ldrh	r1, [r3, r2]
	ldr	r2, [r3, #-1144]
	mov	r3, #0
	b	.L708
.L710:
	ldrh	ip, [r2], #2
	cmp	ip, r0
	beq	.L711
	add	r3, r3, #1
	uxth	r3, r3
.L708:
	cmp	r3, r1
	bne	.L710
	mov	r0, #0
	bx	lr
.L711:
	mov	r0, #1
	bx	lr
.L713:
	.align	2
.L712:
	.word	.LANCHOR2
	.word	-1148
	.fnend
	.size	IsBlkInGcList, .-IsBlkInGcList
	.align	2
	.global	FtlGcUpdatePage
	.type	FtlGcUpdatePage, %function
FtlGcUpdatePage:
	.fnstart
	@ args = 0, pretend = 0, frame = 0
	@ frame_needed = 0, uses_anonymous_args = 0
	stmfd	sp!, {r3, r4, r5, r6, r7, lr}
	.save {r3, r4, r5, r6, r7, lr}
	mov	r4, r0
	ubfx	r0, r0, #10, #16
	mov	r5, r1
	mov	r6, r2
	bl	P2V_block_in_plane
	ldr	r3, .L718
	ldr	r2, .L718+4
	ldrh	ip, [r3, r2]
	ldr	r2, [r3, #-1144]
	mov	r3, #0
	mov	r1, r2
	b	.L715
.L717:
	ldrh	r7, [r1], #2
	cmp	r7, r0
	beq	.L716
	add	r3, r3, #1
	uxth	r3, r3
.L715:
	cmp	r3, ip
	bne	.L717
	mov	r3, r3, asl #1
	strh	r0, [r2, r3]	@ movhi
	ldr	r2, .L718
	ldr	r3, .L718+4
	ldrh	r1, [r2, r3]
	add	r1, r1, #1
	strh	r1, [r2, r3]	@ movhi
.L716:
	ldr	r3, .L718
	mov	r0, #12
	ldr	r2, .L718+8
	ldrh	r1, [r3, r2]
	mul	r1, r0, r1
	ldr	r0, [r3, #-1140]
	add	ip, r0, r1
	stmib	ip, {r5, r6}
	str	r4, [r0, r1]
	ldrh	r1, [r3, r2]
	add	r1, r1, #1
	strh	r1, [r3, r2]	@ movhi
	ldmfd	sp!, {r3, r4, r5, r6, r7, pc}
.L719:
	.align	2
.L718:
	.word	.LANCHOR2
	.word	-1148
	.word	-1136
	.fnend
	.size	FtlGcUpdatePage, .-FtlGcUpdatePage
	.align	2
	.global	FtlGcRefreshOpenBlock
	.type	FtlGcRefreshOpenBlock, %function
FtlGcRefreshOpenBlock:
	.fnstart
	@ args = 0, pretend = 0, frame = 0
	@ frame_needed = 0, uses_anonymous_args = 0
	stmfd	sp!, {r3, r4, r5, r6, r7, r8, sl, lr}
	.save {r3, r4, r5, r6, r7, r8, sl, lr}
	mov	r5, r0
	ldr	r4, .L725
	ldr	sl, .L725+4
	ldrh	r3, [r4, sl]
	cmp	r3, r0
	beq	.L721
	ldr	r8, .L725+8
	ldrh	r3, [r4, r8]
	cmp	r3, r0
	beq	.L721
	ldr	r7, .L725+12
	ldrh	r3, [r4, r7]
	cmp	r3, r0
	beq	.L721
	ldr	r6, .L725+16
	ldrh	r3, [r4, r6]
	cmp	r3, r0
	beq	.L721
	ldr	r0, .L725+20
	mov	r1, r5
	bl	printk
	ldrh	r2, [r4, sl]
	movw	r3, #65535
	cmp	r2, r3
	streqh	r5, [r4, sl]	@ movhi
	beq	.L721
	ldrh	r2, [r4, r8]
	cmp	r2, r3
	streqh	r5, [r4, r8]	@ movhi
	beq	.L721
	ldrh	r2, [r4, r7]
	cmp	r2, r3
	streqh	r5, [r4, r7]	@ movhi
	beq	.L721
	ldrh	r2, [r4, r6]
	cmp	r2, r3
	streqh	r5, [r4, r6]	@ movhi
.L721:
	mov	r0, #0
	ldmfd	sp!, {r3, r4, r5, r6, r7, r8, sl, pc}
.L726:
	.align	2
.L725:
	.word	.LANCHOR2
	.word	-1134
	.word	-1132
	.word	-1130
	.word	-1128
	.word	.LC80
	.fnend
	.size	FtlGcRefreshOpenBlock, .-FtlGcRefreshOpenBlock
	.align	2
	.global	FtlGcRefreshBlock
	.type	FtlGcRefreshBlock, %function
FtlGcRefreshBlock:
	.fnstart
	@ args = 0, pretend = 0, frame = 0
	@ frame_needed = 0, uses_anonymous_args = 0
	stmfd	sp!, {r3, r4, r5, r6, r7, r8, sl, lr}
	.save {r3, r4, r5, r6, r7, r8, sl, lr}
	mov	r5, r0
	ldr	r4, .L738
	ldr	sl, .L738+4
	ldrh	r3, [r4, sl]
	cmp	r3, r0
	beq	.L735
	ldr	r8, .L738+8
	ldrh	r3, [r4, r8]
	cmp	r3, r0
	beq	.L735
	ldr	r7, .L738+12
	ldrh	r3, [r4, r7]
	cmp	r3, r0
	beq	.L735
	ldr	r6, .L738+16
	ldrh	r3, [r4, r6]
	cmp	r3, r0
	beq	.L736
	ldr	r0, .L738+20
	mov	r1, r5
	bl	printk
	ldrh	r2, [r4, sl]
	movw	r3, #65535
	cmp	r2, r3
	streqh	r5, [r4, sl]	@ movhi
	beq	.L735
	ldrh	r2, [r4, r8]
	cmp	r2, r3
	streqh	r5, [r4, r8]	@ movhi
	beq	.L735
	ldrh	r2, [r4, r7]
	cmp	r2, r3
	streqh	r5, [r4, r7]	@ movhi
	beq	.L735
	ldrh	r2, [r4, r6]
	cmp	r2, r3
	streqh	r5, [r4, r6]	@ movhi
	mvnne	r0, #0
	ldmnefd	sp!, {r3, r4, r5, r6, r7, r8, sl, pc}
.L735:
	mov	r0, #0
	ldmfd	sp!, {r3, r4, r5, r6, r7, r8, sl, pc}
.L736:
	mov	r0, #0
	ldmfd	sp!, {r3, r4, r5, r6, r7, r8, sl, pc}
.L739:
	.align	2
.L738:
	.word	.LANCHOR2
	.word	-1134
	.word	-1132
	.word	-1130
	.word	-1128
	.word	.LC80
	.fnend
	.size	FtlGcRefreshBlock, .-FtlGcRefreshBlock
	.section	.text.unlikely,"ax",%progbits
	.align	2
	.type	decrement_vpc_count.part.20, %function
decrement_vpc_count.part.20:
	.fnstart
	@ args = 0, pretend = 0, frame = 0
	@ frame_needed = 0, uses_anonymous_args = 0
	stmfd	sp!, {r4, r5, r6, lr}
	.save {r4, r5, r6, lr}
	mov	r6, r0, asl #1
	ldr	r5, .L742
	mov	r4, r0
	mov	r1, r4
	ldr	r0, .L742+4
	ldr	r3, [r5, #-2012]
	ldrh	r2, [r3, r6]
	bl	printk
	ldr	r3, [r5, #-2012]
	mov	r2, #32
	sub	r0, r5, #2000
	mov	r1, r4
	strh	r2, [r3, r6]	@ movhi
	bl	test_node_in_list
	cmp	r0, #0
	beq	.L741
	mov	r1, r4
	sub	r0, r5, #2000
	bl	List_remove_node
	ldr	r3, .L742+8
	mov	r0, r4
	ldrh	r2, [r5, r3]
	sub	r2, r2, #1
	strh	r2, [r5, r3]	@ movhi
	bl	INSERT_DATA_LIST
	ldr	r3, [r5, #-2012]
	ldr	r0, .L742+12
	mov	r1, r4
	ldrh	r2, [r3, r6]
	bl	printk
.L741:
	mov	r0, r4
	bl	FtlGcRefreshBlock
	mov	r0, #0
	ldmfd	sp!, {r4, r5, r6, pc}
.L743:
	.align	2
.L742:
	.word	.LANCHOR2
	.word	.LC81
	.word	-1996
	.word	.LC82
	.fnend
	.size	decrement_vpc_count.part.20, .-decrement_vpc_count.part.20
	.text
	.align	2
	.global	FtlGcMarkBadPhyBlk
	.type	FtlGcMarkBadPhyBlk, %function
FtlGcMarkBadPhyBlk:
	.fnstart
	@ args = 0, pretend = 0, frame = 0
	@ frame_needed = 0, uses_anonymous_args = 0
	stmfd	sp!, {r3, r4, r5, r6, r7, lr}
	.save {r3, r4, r5, r6, r7, lr}
	mov	r4, r0
	bl	P2V_block_in_plane
	ldr	r7, .L749
	mov	r2, r4
	ldr	r6, .L749+4
	ldrh	r1, [r7, r6]
	mov	r5, r0
	ldr	r0, .L749+8
	bl	printk
	mov	r0, r5
	bl	FtlGcRefreshBlock
	ldr	r3, .L749+12
	ldr	r2, [r3, #3844]
	cmp	r2, #0
	beq	.L745
	ldr	r3, [r3, #4052]
	mov	r5, r5, asl #1
	ldrh	r2, [r3, r5]
	cmp	r2, #39
	subhi	r2, r2, #40
	strhih	r2, [r3, r5]	@ movhi
.L745:
	ldrh	r1, [r7, r6]
	mov	r3, #0
	ldr	r2, .L749+16
	b	.L746
.L748:
	ldrh	r0, [r2, #2]!
	cmp	r0, r4
	beq	.L747
	add	r3, r3, #1
	uxth	r3, r3
.L746:
	cmp	r3, r1
	bne	.L748
	cmp	r3, #15
	bhi	.L747
	ldr	r2, .L749
	ldr	r1, .L749+20
	add	r0, r2, r3, asl #1
	add	r3, r3, #1
	strh	r4, [r0, r1]	@ movhi
	sub	r1, r1, #2
	strh	r3, [r2, r1]	@ movhi
.L747:
	mov	r0, #0
	ldmfd	sp!, {r3, r4, r5, r6, r7, pc}
.L750:
	.align	2
.L749:
	.word	.LANCHOR2
	.word	-1126
	.word	.LC83
	.word	.LANCHOR0
	.word	.LANCHOR2-1126
	.word	-1124
	.fnend
	.size	FtlGcMarkBadPhyBlk, .-FtlGcMarkBadPhyBlk
	.align	2
	.global	FtlGcReFreshBadBlk
	.type	FtlGcReFreshBadBlk, %function
FtlGcReFreshBadBlk:
	.fnstart
	@ args = 0, pretend = 0, frame = 0
	@ frame_needed = 0, uses_anonymous_args = 0
	stmfd	sp!, {r3, r4, r5, lr}
	.save {r3, r4, r5, lr}
	ldr	r2, .L754
	ldr	r3, .L754+4
	ldrh	r2, [r3, r2]
	cmp	r2, #0
	beq	.L752
	ldr	r1, .L754+8
	ldrh	r0, [r3, r1]
	movw	r1, #65535
	cmp	r0, r1
	bne	.L752
	ldr	r4, .L754+12
	ldr	r5, .L754+4
	ldrh	r1, [r3, r4]
	cmp	r1, r2
	movcs	r2, #0
	strcsh	r2, [r3, r4]	@ movhi
	ldrh	r2, [r5, r4]
	ldr	r3, .L754+16
	add	r2, r5, r2, asl #1
	ldrh	r0, [r2, r3]
	bl	P2V_block_in_plane
	bl	FtlGcRefreshBlock
	ldrh	r3, [r5, r4]
	add	r3, r3, #1
	strh	r3, [r5, r4]	@ movhi
.L752:
	mov	r0, #0
	ldmfd	sp!, {r3, r4, r5, pc}
.L755:
	.align	2
.L754:
	.word	-1126
	.word	.LANCHOR2
	.word	-1134
	.word	-1090
	.word	-1124
	.fnend
	.size	FtlGcReFreshBadBlk, .-FtlGcReFreshBadBlk
	.align	2
	.global	ftl_memset
	.type	ftl_memset, %function
ftl_memset:
	.fnstart
	@ args = 0, pretend = 0, frame = 0
	@ frame_needed = 0, uses_anonymous_args = 0
	cmp	r2, #0
	stmfd	sp!, {r4, lr}
	.save {r4, lr}
	mov	r4, r0
	beq	.L757
	bl	memset
.L757:
	mov	r0, r4
	ldmfd	sp!, {r4, pc}
	.fnend
	.size	ftl_memset, .-ftl_memset
	.align	2
	.global	FtlGcPageVarInit
	.type	FtlGcPageVarInit, %function
FtlGcPageVarInit:
	.fnstart
	@ args = 0, pretend = 0, frame = 0
	@ frame_needed = 0, uses_anonymous_args = 0
	stmfd	sp!, {r4, r5, r6, lr}
	.save {r4, r5, r6, lr}
	mov	r3, #0
	ldr	r4, .L759
	movw	r5, #3922
	ldr	r2, .L759+4
	mov	r1, #255
	ldr	r6, .L759+8
	ldr	r0, [r4, #-1144]
	strh	r3, [r4, r2]	@ movhi
	add	r2, r2, #12
	strh	r3, [r4, r2]	@ movhi
	ldrh	r2, [r6, r5]
	mov	r2, r2, asl #1
	bl	ftl_memset
	ldrh	r3, [r6, r5]
	mov	r2, #12
	ldr	r0, [r4, #-1140]
	mov	r1, #255
	mul	r2, r2, r3
	bl	ftl_memset
	ldmfd	sp!, {r4, r5, r6, lr}
	b	FtlGcBufInit
.L760:
	.align	2
.L759:
	.word	.LANCHOR2
	.word	-1148
	.word	.LANCHOR0
	.fnend
	.size	FtlGcPageVarInit, .-FtlGcPageVarInit
	.align	2
	.global	SupperBlkListInit
	.type	SupperBlkListInit, %function
SupperBlkListInit:
	.fnstart
	@ args = 0, pretend = 0, frame = 8
	@ frame_needed = 0, uses_anonymous_args = 0
	stmfd	sp!, {r0, r1, r2, r4, r5, r6, r7, r8, r9, sl, fp, lr}
	.save {r0, r1, r2, r4, r5, r6, r7, r8, r9, sl, fp, lr}
	movw	r3, #3862
	ldr	r7, .L771
	mov	r2, #6
	ldr	r4, .L771+4
	mov	r1, #0
	mov	r6, #0
	ldrh	r3, [r7, r3]
	mov	sl, r6
	ldr	r0, [r4, #-2020]
	mul	r2, r2, r3
	bl	ftl_memset
	ldr	r3, .L771+8
	str	r6, [r4, #-2000]
	str	r6, [r4, #-2016]
	strh	r6, [r4, r3]	@ movhi
	add	r3, r3, #8
	str	r6, [r4, #-2008]
	strh	r6, [r4, r3]	@ movhi
	add	r3, r3, #908
	strh	r6, [r4, r3]	@ movhi
	mov	r4, r6
	b	.L762
.L764:
	add	r1, r7, r1
	add	r9, r9, #1
	ldrb	r0, [r1, #3878]	@ zero_extendqisi2
	mov	r1, r3
	stmia	sp, {r2, r3}
	bl	V2P_block
	bl	FtlBbmIsBadBlock
	ldmia	sp, {r2, r3}
	uxth	r9, r9
	cmp	r0, #0
	ldreqh	r1, [r7, r2]
	addeq	r5, r5, r1
	uxtheq	r5, r5
	b	.L769
.L770:
	mov	r5, #0
	uxth	r3, r4
	mov	r9, r5
	movw	fp, #3852
	movw	r2, #3918
.L769:
	ldrh	r0, [r7, fp]
	sxth	r1, r9
	cmp	r1, r0
	blt	.L764
	cmp	r5, #0
	ldr	r9, .L771+4
	beq	.L765
	sxth	r1, r5
	mov	r0, #32768
	bl	__aeabi_idiv
	uxth	r5, r0
	b	.L766
.L765:
	sxth	r3, r4
	ldr	r2, [r9, #-2012]
	mvn	r1, #0
	mov	r3, r3, asl #1
	strh	r1, [r2, r3]	@ movhi
.L766:
	sxth	r1, r4
	ldr	r0, [r9, #-2020]
	ldr	r3, .L771+4
	mov	r2, r1, asl #1
	add	r1, r2, r1
	add	r1, r0, r1, asl #1
	strh	r5, [r1, #4]	@ movhi
	ldr	r1, .L771+12
	ldrh	r1, [r9, r1]
	cmp	r8, r1
	beq	.L767
	ldr	r1, .L771+16
	ldrh	r1, [r3, r1]
	cmp	r8, r1
	beq	.L767
	ldr	r1, .L771+20
	ldrh	r1, [r3, r1]
	cmp	r8, r1
	beq	.L767
	ldr	r3, [r3, #-2012]
	uxth	r0, r4
	ldrh	r3, [r3, r2]
	cmp	r3, #0
	bne	.L768
	add	r6, r6, #1
	uxth	r6, r6
	bl	INSERT_FREE_LIST
	b	.L767
.L768:
	add	sl, sl, #1
	uxth	sl, sl
	bl	INSERT_DATA_LIST
.L767:
	add	r4, r4, #1
	uxth	r4, r4
.L762:
	movw	r2, #3860
	sxth	r8, r4
	ldrh	r3, [r7, r2]
	cmp	r8, r3
	blt	.L770
	ldr	r3, .L771+4
	mov	r0, #0
	ldr	r2, .L771+8
	strh	sl, [r3, r2]	@ movhi
	add	r2, r2, #8
	strh	r6, [r3, r2]	@ movhi
	ldmfd	sp!, {r1, r2, r3, r4, r5, r6, r7, r8, r9, sl, fp, pc}
.L772:
	.align	2
.L771:
	.word	.LANCHOR0
	.word	.LANCHOR2
	.word	-2004
	.word	-1992
	.word	-1944
	.word	-1896
	.fnend
	.size	SupperBlkListInit, .-SupperBlkListInit
	.align	2
	.global	FtlL2PDataInit
	.type	FtlL2PDataInit, %function
FtlL2PDataInit:
	.fnstart
	@ args = 0, pretend = 0, frame = 0
	@ frame_needed = 0, uses_anonymous_args = 0
	stmfd	sp!, {r3, r4, r5, r6, r7, r8, sl, lr}
	.save {r3, r4, r5, r6, r7, r8, sl, lr}
	mov	r1, #0
	ldr	r4, .L776
	movw	r6, #3928
	ldr	r5, .L776+4
	movw	r7, #3958
	mov	r8, #12
	ldr	r2, [r4, #3948]
	ldr	r0, [r5, #-1084]
	mov	r2, r2, asl #1
	bl	ftl_memset
	ldrh	r3, [r4, r6]
	ldrh	r2, [r4, r7]
	mov	r1, #255
	ldr	r0, [r5, #-1080]
	mul	r2, r2, r3
	bl	ftl_memset
	mov	r2, #0
	mov	ip, r2
	mvn	r0, #0
	b	.L774
.L775:
	mul	r3, r8, r2
	ldr	r1, [r5, #-1848]
	add	sl, r1, r3
	str	ip, [sl, #4]
	strh	r0, [r1, r3]	@ movhi
	ldr	r1, [r5, #-1848]
	ldr	sl, [r5, #-1080]
	add	r3, r1, r3
	ldrh	r1, [r4, r6]
	mul	r1, r2, r1
	add	r2, r2, #1
	uxth	r2, r2
	bic	r1, r1, #3
	add	r1, sl, r1
	str	r1, [r3, #8]
.L774:
	ldrh	r3, [r4, r7]
	ldr	r1, .L776
	cmp	r3, r2
	ldr	r3, .L776+4
	bhi	.L775
	ldr	r0, .L776+8
	mvn	r2, #0
	strh	r2, [r3, r0]	@ movhi
	sub	r0, r0, #2
	strh	r2, [r3, r0]	@ movhi
	ldr	r0, [r1, #3948]
	ldr	r2, .L776+12
	strh	r0, [r3, r2]	@ movhi
	ldr	r0, .L776+16
	ldr	r2, .L776+20
	strh	r0, [r3, r2]	@ movhi
	add	r2, r2, #40
	ldrh	r0, [r3, r2]
	sub	r2, r2, #36
	strh	r0, [r3, r2]	@ movhi
	movw	r2, #3956
	ldrh	r1, [r1, r2]
	ldr	r2, .L776+24
	strh	r1, [r3, r2]	@ movhi
	ldr	r2, [r3, #-1028]
	str	r2, [r3, #-1064]
	ldr	r2, [r3, #-1024]
	str	r2, [r3, #-1060]
	ldr	r2, [r3, #-1084]
	str	r2, [r3, #-1056]
	ldr	r2, [r3, #-1020]
	str	r2, [r3, #-1052]
	ldmfd	sp!, {r3, r4, r5, r6, r7, r8, sl, pc}
.L777:
	.align	2
.L776:
	.word	.LANCHOR0
	.word	.LANCHOR2
	.word	-1074
	.word	-1066
	.word	-3902
	.word	-1072
	.word	-1070
	.fnend
	.size	FtlL2PDataInit, .-FtlL2PDataInit
	.align	2
	.global	ftl_free_no_use_map_blk
	.type	ftl_free_no_use_map_blk, %function
ftl_free_no_use_map_blk:
	.fnstart
	@ args = 0, pretend = 0, frame = 0
	@ frame_needed = 0, uses_anonymous_args = 0
	stmfd	sp!, {r3, r4, r5, r6, r7, r8, r9, sl, fp, lr}
	.save {r3, r4, r5, r6, r7, r8, r9, sl, fp, lr}
	mov	r1, #0
	ldrh	r2, [r0, #10]
	mov	r4, r0
	ldr	r5, [r0, #20]
	ldr	r6, [r0, #12]
	ldr	r7, [r0, #24]
	mov	r2, r2, asl #1
	mov	r0, r5
	bl	ftl_memset
	mov	r3, #0
	b	.L779
.L783:
	ldr	r0, [r7, r3, asl #2]
	mov	r2, #0
	ubfx	r0, r0, #10, #16
	b	.L780
.L782:
	mov	r1, r2, asl #1
	ldrh	ip, [r6, r1]
	cmp	ip, r0
	bne	.L781
	cmp	r0, #0
	ldrneh	ip, [r5, r1]
	addne	ip, ip, #1
	strneh	ip, [r5, r1]	@ movhi
.L781:
	add	r2, r2, #1
	uxth	r2, r2
.L780:
	ldrh	r1, [r4, #10]
	cmp	r1, r2
	bhi	.L782
	add	r3, r3, #1
	uxth	r3, r3
.L779:
	ldrh	r2, [r4, #6]
	cmp	r2, r3
	bhi	.L783
	ldr	r2, .L789
	mov	r3, #3920
	mov	r8, #0
	mov	r7, r8
	ldrh	r2, [r2, r3]
	ldrh	r3, [r4, #0]
	mov	r3, r3, asl #1
	strh	r2, [r5, r3]	@ movhi
	ldrh	fp, [r5, #0]
	b	.L784
.L787:
	mov	sl, r7, asl #1
	ldrh	r9, [r5, sl]
	cmp	fp, r9
	bls	.L785
	ldrh	r3, [r6, sl]
	cmp	r3, #0
	movne	r8, r7
	movne	fp, r9
.L785:
	cmp	r9, #0
	bne	.L786
	ldrh	r0, [r6, sl]
	cmp	r0, #0
	beq	.L786
	mov	r1, #1
	bl	FtlFreeSysBlkQueueIn
	strh	r9, [r6, sl]	@ movhi
	ldrh	r3, [r4, #8]
	sub	r3, r3, #1
	strh	r3, [r4, #8]	@ movhi
.L786:
	add	r7, r7, #1
	uxth	r7, r7
.L784:
	ldrh	r3, [r4, #10]
	cmp	r3, r7
	bhi	.L787
	mov	r0, r8
	ldmfd	sp!, {r3, r4, r5, r6, r7, r8, r9, sl, fp, pc}
.L790:
	.align	2
.L789:
	.word	.LANCHOR0
	.fnend
	.size	ftl_free_no_use_map_blk, .-ftl_free_no_use_map_blk
	.align	2
	.global	FtlFreeSysBlkQueueInit
	.type	FtlFreeSysBlkQueueInit, %function
FtlFreeSysBlkQueueInit:
	.fnstart
	@ args = 0, pretend = 0, frame = 0
	@ frame_needed = 0, uses_anonymous_args = 0
	ldr	r3, .L792
	movw	r2, #4062
	stmfd	sp!, {r4, lr}
	.save {r4, lr}
	mov	r4, #0
	strh	r4, [r3, r2]	@ movhi
	mov	r2, #4064
	strh	r4, [r3, r2]	@ movhi
	add	r2, r2, #2
	mov	r1, r4
	strh	r4, [r3, r2]	@ movhi
	movw	r2, #4060
	strh	r0, [r3, r2]	@ movhi
	mov	r2, #2048
	ldr	r0, .L792+4
	bl	ftl_memset
	mov	r0, r4
	ldmfd	sp!, {r4, pc}
.L793:
	.align	2
.L792:
	.word	.LANCHOR0
	.word	.LANCHOR0+4068
	.fnend
	.size	FtlFreeSysBlkQueueInit, .-FtlFreeSysBlkQueueInit
	.align	2
	.global	FtlBbtMemInit
	.type	FtlBbtMemInit, %function
FtlBbtMemInit:
	.fnstart
	@ args = 0, pretend = 0, frame = 0
	@ frame_needed = 0, uses_anonymous_args = 0
	@ link register save eliminated.
	ldr	r3, .L795
	mov	r2, #3984
	mvn	r1, #0
	ldr	r0, .L795+4
	strh	r1, [r3, r2]	@ movhi
	add	r2, r2, #6
	mov	r1, #0
	strh	r1, [r3, r2]	@ movhi
	mov	r1, #255
	mov	r2, #16
	b	ftl_memset
.L796:
	.align	2
.L795:
	.word	.LANCHOR0
	.word	.LANCHOR0+3996
	.fnend
	.size	FtlBbtMemInit, .-FtlBbtMemInit
	.align	2
	.global	FtlBbt2Bitmap
	.type	FtlBbt2Bitmap, %function
FtlBbt2Bitmap:
	.fnstart
	@ args = 0, pretend = 0, frame = 0
	@ frame_needed = 0, uses_anonymous_args = 0
	ldr	r3, .L801
	ldr	r2, .L801+4
	stmfd	sp!, {r4, r5, r6, lr}
	.save {r4, r5, r6, lr}
	mov	r5, r0
	ldrh	r2, [r2, r3]
	mov	r0, r1
	mov	r4, r1
	mov	r1, #0
	mov	r2, r2, asl #2
	bl	ftl_memset
	mov	r3, #0
	movw	ip, #65535
	mov	r0, #1
.L799:
	ldrh	r2, [r5, r3]
	cmp	r2, ip
	ldmeqfd	sp!, {r4, r5, r6, pc}
	mov	r1, r2, lsr #5
	add	r3, r3, #2
	cmp	r3, #1024
	and	r2, r2, #31
	ldr	r6, [r4, r1, asl #2]
	orr	r2, r6, r0, asl r2
	str	r2, [r4, r1, asl #2]
	bne	.L799
	ldmfd	sp!, {r4, r5, r6, pc}
.L802:
	.align	2
.L801:
	.word	-1016
	.word	.LANCHOR2
	.fnend
	.size	FtlBbt2Bitmap, .-FtlBbt2Bitmap
	.align	2
	.global	FtlVariablesInit
	.type	FtlVariablesInit, %function
FtlVariablesInit:
	.fnstart
	@ args = 0, pretend = 0, frame = 0
	@ frame_needed = 0, uses_anonymous_args = 0
	stmfd	sp!, {r3, r4, r5, r6, r7, lr}
	.save {r3, r4, r5, r6, r7, lr}
	mvn	r3, #0
	ldr	r6, .L804
	mov	r4, #0
	ldr	r2, .L804+4
	mov	r1, r4
	ldr	r5, .L804+8
	movw	r7, #3862
	str	r3, [r6, #-996]
	strh	r3, [r6, r2]	@ movhi
	movw	r3, #3966
	strh	r4, [r5, r3]	@ movhi
	movw	r3, #3940
	ldrh	r2, [r5, r3]
	ldr	r0, [r5, #3968]
	str	r4, [r6, #-1012]
	mov	r2, r2, asl #1
	str	r4, [r6, #-1004]
	str	r4, [r6, #-1000]
	str	r4, [r5, #3844]
	bl	ftl_memset
	ldrh	r2, [r5, r7]
	mov	r1, r4
	ldr	r0, [r5, #4052]
	mov	r2, r2, asl #1
	bl	ftl_memset
	ldrh	r2, [r5, r7]
	mov	r1, r4
	ldr	r0, [r6, #-992]
	mov	r2, r2, asl #1
	bl	ftl_memset
	mov	r1, r4
	mov	r2, #48
	ldr	r0, .L804+12
	bl	ftl_memset
	mov	r1, r4
	mov	r2, #512
	ldr	r0, .L804+16
	bl	ftl_memset
	bl	FtlGcBufInit
	bl	FtlL2PDataInit
	mov	r0, r4
	ldmfd	sp!, {r3, r4, r5, r6, r7, pc}
.L805:
	.align	2
.L804:
	.word	.LANCHOR2
	.word	-1008
	.word	.LANCHOR0
	.word	.LANCHOR2-2068
	.word	.LANCHOR2-1700
	.fnend
	.size	FtlVariablesInit, .-FtlVariablesInit
	.align	2
	.global	FtlMemInit
	.type	FtlMemInit, %function
FtlMemInit:
	.fnstart
	@ args = 0, pretend = 0, frame = 0
	@ frame_needed = 0, uses_anonymous_args = 0
	stmfd	sp!, {r4, r5, r6, r7, r8, r9, sl, lr}
	.save {r4, r5, r6, r7, r8, r9, sl, lr}
	mov	r6, #0
	ldr	r4, .L837
	mov	r0, #1024
	ldr	r3, .L837+4
	mov	r7, #12
	ldr	r2, .L837+8
	movw	sl, #3852
	ldr	r5, .L837+12
	mov	r8, #36
	strh	r6, [r4, r3]	@ movhi
	movw	r3, #65535
	str	r3, [r4, #-980]
	mvn	r3, #0
	strh	r3, [r4, r2]	@ movhi
	add	r2, r2, #2
	str	r6, [r4, #-988]
	strh	r3, [r4, r2]	@ movhi
	add	r2, r2, #2
	str	r6, [r4, #-1704]
	strh	r3, [r4, r2]	@ movhi
	add	r2, r2, #2
	str	r6, [r4, #-1800]
	strh	r3, [r4, r2]	@ movhi
	mov	r2, #32
	ldr	r3, .L837+16
	str	r6, [r4, #-1796]
	str	r6, [r4, #-1812]
	strh	r2, [r4, r3]	@ movhi
	add	r3, r3, #2
	mov	r2, #128
	str	r6, [r4, #-1824]
	strh	r2, [r4, r3]	@ movhi
	add	r3, r3, #6
	str	r6, [r4, #-1828]
	strh	r6, [r4, r3]	@ movhi
	add	r3, r3, #54
	str	r6, [r4, #-1820]
	strh	r6, [r4, r3]	@ movhi
	add	r3, r3, #158
	str	r6, [r4, #-1816]
	strh	r6, [r4, r3]	@ movhi
	sub	r3, r3, #122
	str	r6, [r4, #-1832]
	strh	r6, [r4, r3]	@ movhi
	movw	r3, #3924
	ldrh	r1, [r5, r3]
	str	r6, [r4, #-1792]
	str	r6, [r4, #-1788]
	str	r6, [r5, #4056]
	str	r6, [r4, #-1780]
	str	r6, [r4, #-1776]
	str	r6, [r4, #-984]
	str	r6, [r4, #-1176]
	str	r6, [r4, #-976]
	str	r6, [r4, #-1184]
	str	r6, [r4, #-972]
	bl	__aeabi_idiv
	movw	r3, #3852
	ldrh	r3, [r5, r3]
	str	r6, [r5, #3972]
	movw	r6, #3922
	mov	r3, r3, asl #2
	cmp	r0, r3
	str	r0, [r4, #-964]
	ldrh	r0, [r5, r6]
	strhi	r3, [r4, #-964]
	ldr	r4, .L837
	mov	r0, r0, asl #1
	bl	ftl_malloc
	str	r0, [r4, #-1144]
	ldrh	r0, [r5, r6]
	mul	r0, r7, r0
	bl	ftl_malloc
	ldrh	r6, [r5, sl]
	mul	r6, r8, r6
	mov	r9, r6, asl #3
	str	r0, [r4, #-1140]
	mov	r0, r9
	bl	ftl_malloc
	str	r0, [r4, #-960]
	mov	r0, r6
	bl	ftl_malloc
	str	r0, [r4, #-956]
	mov	r0, r9
	bl	ftl_malloc
	str	r0, [r4, #-952]
	mov	r0, r6
	bl	ftl_malloc
	str	r0, [r5, #4048]
	mov	r0, r6
	bl	ftl_malloc
	str	r0, [r4, #-1156]
	ldr	r0, [r4, #-964]
	mul	r0, r8, r0
	bl	ftl_malloc
	movw	r8, #3928
	ldrh	r3, [r5, sl]
	ldrh	r6, [r5, r8]
	mov	r3, r3, asl #1
	add	r3, r3, #1
	str	r3, [r4, #-1152]
	str	r0, [r5, #3976]
	mov	r0, r6
	bl	ftl_malloc
	str	r0, [r4, #-948]
	mov	r0, r6
	bl	ftl_malloc
	str	r0, [r4, #-944]
	mov	r0, r6
	bl	ftl_malloc
	str	r0, [r4, #-940]
	ldr	r0, [r4, #-1152]
	mul	r0, r0, r6
	bl	ftl_malloc
	str	r0, [r4, #-1164]
	ldr	r0, [r4, #-964]
	mul	r0, r0, r6
	bl	ftl_malloc
	str	r0, [r4, #-936]
	mov	r0, r6
	bl	ftl_malloc
	str	r0, [r4, #-932]
	mov	r0, r6
	bl	ftl_malloc
	movw	r6, #3930
	str	r0, [r4, #-928]
	ldr	r0, [r4, #-1152]
	mul	r0, r7, r0
	bl	ftl_malloc
	ldrh	r3, [r5, r6]
	ldrh	sl, [r5, sl]
	mul	sl, sl, r3
	str	r0, [r4, #-1168]
	mov	r0, sl
	bl	ftl_malloc
	str	r0, [r4, #-924]
	mov	r0, sl, asl #3
	bl	ftl_malloc
	ldrh	r3, [r5, r6]
	ldr	sl, .L837+20
	str	r0, [r4, #-920]
	ldr	r0, [r4, #-1152]
	mul	r0, r0, r3
	bl	ftl_malloc
	ldrh	r3, [r5, r6]
	movw	r6, #3862
	str	r0, [r4, #-1160]
	ldr	r0, [r4, #-964]
	mul	r0, r0, r3
	bl	ftl_malloc
	str	r0, [r4, #-916]
	ldrh	r0, [r5, r6]
	mov	r0, r0, asl #1
	uxth	r0, r0
	strh	r0, [r4, sl]	@ movhi
	bl	ftl_malloc
	str	r0, [r4, #-992]
	ldrh	r0, [r4, sl]
	add	r0, r0, #544
	add	r0, r0, #3
	mov	r0, r0, lsr #9
	strh	r0, [r4, sl]	@ movhi
	mov	r0, r0, asl #9
	bl	ftl_malloc
	ldrh	sl, [r5, r6]
	mov	sl, sl, asl #1
	str	r0, [r4, #-908]
	add	r0, r0, #32
	str	r0, [r5, #4052]
	mov	r0, sl
	bl	ftl_malloc
	str	r0, [r4, #-904]
	mov	r0, sl
	bl	ftl_malloc
	ldr	sl, [r5, #3948]
	mov	sl, sl, asl #1
	str	r0, [r4, #-2012]
	mov	r0, sl
	bl	ftl_malloc
	str	r0, [r4, #-1028]
	mov	r0, sl
	bl	ftl_malloc
	movw	sl, #3940
	str	r0, [r4, #-1084]
	ldrh	r0, [r5, r6]
	mov	r0, r0, lsr #3
	add	r0, r0, #4
	bl	ftl_malloc
	str	r0, [r4, #-1836]
	ldrh	r0, [r5, sl]
	mov	r0, r0, asl #1
	bl	ftl_malloc
	str	r0, [r5, #3968]
	ldrh	r0, [r5, sl]
	mov	r0, r0, asl #1
	bl	ftl_malloc
	str	r0, [r4, #-900]
	ldrh	r0, [r5, sl]
	add	sl, sl, #2
	mov	r0, r0, asl #2
	bl	ftl_malloc
	str	r0, [r4, #-896]
	ldrh	r0, [r5, sl]
	mov	r0, r0, asl #2
	bl	ftl_malloc
	ldrh	r2, [r5, sl]
	mov	r1, #0
	mov	r2, r2, asl #2
	str	r0, [r4, #-892]
	bl	ftl_memset
	movw	r3, #3956
	ldrh	sl, [r5, r3]
	mov	sl, sl, asl #2
	mov	r0, sl
	bl	ftl_malloc
	str	r0, [r4, #-1020]
	mov	r0, sl
	bl	ftl_malloc
	movw	sl, #3958
	str	r0, [r4, #-888]
	ldr	r0, [r5, #3948]
	mov	r0, r0, asl #2
	bl	ftl_malloc
	str	r0, [r4, #-1024]
	ldrh	r0, [r5, sl]
	mul	r0, r7, r0
	bl	ftl_malloc
	ldrh	r3, [r5, sl]
	movw	r7, #3874
	str	r0, [r4, #-1848]
	ldrh	r0, [r5, r8]
	mul	r0, r0, r3
	bl	ftl_malloc
	ldrh	r3, [r5, r6]
	ldr	r6, .L837+24
	str	r0, [r4, #-1080]
	mov	r0, #6
	mul	r0, r0, r3
	bl	ftl_malloc
	movw	r3, #3916
	ldrh	r3, [r5, r3]
	ldrh	r2, [r5, r7]
	add	r3, r3, #31
	mov	r3, r3, lsr #5
	strh	r3, [r4, r6]	@ movhi
	mul	r3, r2, r3
	str	r0, [r4, #-2020]
	mov	r0, r3, asl #2
	bl	ftl_malloc
	ldrh	r1, [r4, r6]
	mov	r3, #1
	ldr	ip, .L837+12
	mov	r1, r1, asl #2
	mov	r2, r1
	str	r0, [r5, #4012]
	ldrh	r5, [r5, r7]
	ldr	r0, .L837+28
	b	.L808
.L809:
	ldr	r4, [ip, #4012]
	add	r3, r3, #1
	add	r4, r4, r2
	add	r2, r2, r1
	str	r4, [r0, #4]!
.L808:
	cmp	r3, r5
	bcc	.L809
	ldr	r0, .L837+32
	mov	r2, #0
	mov	r1, r2
	add	r0, r0, r3, asl #2
	b	.L810
.L811:
	add	ip, r0, r2
	add	r3, r3, #1
	add	r2, r2, #4
	str	r1, [ip, #28]
.L810:
	cmp	r3, #7
	bls	.L811
	ldr	r3, .L837
	ldr	r2, [r3, #-1028]
	cmp	r2, #0
	beq	.L836
.L812:
	ldr	r2, [r3, #-1084]
	cmp	r2, #0
	beq	.L836
.L814:
	ldr	r2, [r3, #-1020]
	cmp	r2, #0
	beq	.L836
.L815:
	ldr	r2, [r3, #-1024]
	cmp	r2, #0
	beq	.L836
.L816:
	ldr	r2, [r3, #-1848]
	cmp	r2, #0
	beq	.L836
.L817:
	ldr	r2, [r3, #-1080]
	cmp	r2, #0
	beq	.L836
.L818:
	ldr	r2, [r3, #-2020]
	cmp	r2, #0
	beq	.L836
.L819:
	ldr	r2, .L837+12
	ldr	r2, [r2, #4012]
	cmp	r2, #0
	beq	.L836
.L820:
	ldr	r3, [r3, #-2012]
	cmp	r3, #0
	beq	.L836
.L821:
	ldr	r3, .L837
	ldr	r2, [r3, #-1144]
	cmp	r2, #0
	beq	.L836
	ldr	r2, [r3, #-1140]
	cmp	r2, #0
	beq	.L836
.L823:
	ldr	r2, [r3, #-960]
	cmp	r2, #0
	beq	.L836
	ldr	r2, [r3, #-952]
	cmp	r2, #0
	beq	.L836
	ldr	r2, .L837+12
	ldr	r2, [r2, #4048]
	cmp	r2, #0
	beq	.L836
	ldr	r2, [r3, #-1156]
	cmp	r2, #0
	beq	.L836
	ldr	r2, [r3, #-956]
	cmp	r2, #0
	beq	.L836
.L825:
	ldr	r2, [r3, #-948]
	cmp	r2, #0
	beq	.L836
	ldr	r2, [r3, #-944]
	cmp	r2, #0
	beq	.L836
	ldr	r3, [r3, #-940]
	cmp	r3, #0
	beq	.L836
	ldr	r3, .L837
	ldr	r2, [r3, #-1164]
	cmp	r2, #0
	beq	.L836
	ldr	r2, [r3, #-932]
	cmp	r2, #0
	beq	.L836
	ldr	r2, [r3, #-928]
	cmp	r2, #0
	beq	.L836
	ldr	r2, [r3, #-1168]
	cmp	r2, #0
	beq	.L836
.L827:
	ldr	r2, [r3, #-924]
	cmp	r2, #0
	beq	.L836
	ldr	r2, [r3, #-920]
	cmp	r2, #0
	beq	.L836
	ldr	r2, [r3, #-1160]
	cmp	r2, #0
	beq	.L836
.L829:
	ldr	r2, .L837+12
	ldr	r1, [r2, #4052]
	cmp	r1, #0
	beq	.L836
	ldr	r3, [r3, #-992]
	cmp	r3, #0
	beq	.L836
.L831:
	ldr	r3, [r2, #3968]
	cmp	r3, #0
	beq	.L836
.L832:
	ldr	r3, .L837
	ldr	r2, [r3, #-900]
	cmp	r2, #0
	beq	.L836
.L833:
	ldr	r2, [r3, #-896]
	cmp	r2, #0
	beq	.L836
.L834:
	ldr	r3, [r3, #-892]
	cmp	r3, #0
	bne	.L835
.L836:
	ldr	r0, .L837+36
	ldr	r1, .L837+40
	bl	printk
	mvn	r0, #0
	ldmfd	sp!, {r4, r5, r6, r7, r8, r9, sl, pc}
.L835:
	mov	r0, #0
	ldmfd	sp!, {r4, r5, r6, r7, r8, r9, sl, pc}
.L838:
	.align	2
.L837:
	.word	.LANCHOR2
	.word	-1088
	.word	-1134
	.word	.LANCHOR0
	.word	-1188
	.word	-912
	.word	-1016
	.word	.LANCHOR0+4012
	.word	.LANCHOR0+3984
	.word	.LC84
	.word	.LANCHOR3
	.fnend
	.size	FtlMemInit, .-FtlMemInit
	.align	2
	.global	ftl_read_flash_info
	.type	ftl_read_flash_info, %function
ftl_read_flash_info:
	.fnstart
	@ args = 0, pretend = 0, frame = 0
	@ frame_needed = 0, uses_anonymous_args = 0
	stmfd	sp!, {r3, r4, r5, lr}
	.save {r3, r4, r5, lr}
	mov	r1, #0
	mov	r2, #11
	mov	r4, r0
	bl	ftl_memset
	ldr	r3, .L842
	ldr	r2, [r3, #3624]
	ldr	r1, [r3, #856]
	ldrb	r2, [r2, #9]	@ zero_extendqisi2
	mul	r2, r1, r2
	mov	r1, #0
	uxth	r2, r2
	strb	r2, [r4, #4]
	mov	r2, r2, lsr #8
	strb	r2, [r4, #5]
	ldrb	r2, [r3, #3840]	@ zero_extendqisi2
	strb	r2, [r4, #7]
	ldr	r2, [r3, #3960]
	ubfx	r0, r2, #8, #8
	strb	r0, [r4, #1]
	strb	r2, [r4, #0]
	ubfx	r0, r2, #16, #8
	mov	r2, r2, lsr #24
	strb	r0, [r4, #2]
	strb	r2, [r4, #3]
	ldr	r2, [r3, #3624]
	ldrb	r0, [r2, #9]	@ zero_extendqisi2
	strb	r0, [r4, #6]
	mov	r0, #32
	strb	r0, [r4, #8]
	ldrb	r2, [r2, #7]	@ zero_extendqisi2
	ldrb	r0, [r3, #3762]	@ zero_extendqisi2
	mov	r3, r1
	strb	r1, [r4, #10]
	strb	r2, [r4, #9]
	mov	r2, #1
	ldr	r1, .L842+4
	b	.L840
.L841:
	ldrb	r5, [r3, r1]	@ zero_extendqisi2
	add	r3, r3, #1
	ldrb	ip, [r4, #10]	@ zero_extendqisi2
	orr	ip, ip, r2, asl r5
	strb	ip, [r4, #10]
.L840:
	uxtb	ip, r3
	cmp	ip, r0
	bcc	.L841
	ldmfd	sp!, {r3, r4, r5, pc}
.L843:
	.align	2
.L842:
	.word	.LANCHOR0
	.word	.LANCHOR0+3764
	.fnend
	.size	ftl_read_flash_info, .-ftl_read_flash_info
	.align	2
	.global	FlashDieInfoInit
	.type	FlashDieInfoInit, %function
FlashDieInfoInit:
	.fnstart
	@ args = 0, pretend = 0, frame = 0
	@ frame_needed = 0, uses_anonymous_args = 0
	stmfd	sp!, {r3, r4, r5, r6, r7, r8, sl, lr}
	.save {r3, r4, r5, r6, r7, r8, sl, lr}
	mov	r4, #0
	ldr	r3, .L853
	mov	r6, r4
	ldr	r2, .L853+4
	ldr	r5, .L853+8
	strb	r4, [r3, #-884]
	movw	r3, #3126
	ldrh	r0, [r2, r3]
	add	r7, r5, #2976
	strb	r4, [r5, #3762]
	bl	FlashBlockAlignInit
	mov	r1, r4
	mov	r2, #8
	ldr	r0, .L853+12
	mov	r8, r7
	bl	ftl_memset
	mov	r1, r4
	mov	r2, #32
	ldr	r0, .L853+16
	bl	ftl_memset
	ldr	r0, .L853+20
	mov	r1, r4
	mov	r2, #128
	bl	ftl_memset
.L846:
	ldr	r4, [r5, #3624]
	mov	r1, r8
	add	r0, r4, #1
	ldrb	r2, [r4, #0]	@ zero_extendqisi2
	bl	FlashMemCmp8
	cmp	r0, #0
	bne	.L845
	ldrb	r3, [r5, #3762]	@ zero_extendqisi2
	add	r2, r5, r3, asl #2
	str	r0, [r2, #3588]
	add	r2, r5, r3
	add	r3, r3, #1
	strb	r3, [r5, #3762]
	strb	r6, [r2, #3764]
.L845:
	add	r6, r6, #1
	add	r8, r8, #8
	cmp	r6, #4
	bne	.L846
	ldr	r5, .L853+8
	ldr	r3, .L853
	ldrb	r2, [r5, #3762]	@ zero_extendqisi2
	strb	r2, [r3, #-884]
	ldrb	r3, [r4, #8]	@ zero_extendqisi2
	cmp	r3, #2
	bne	.L847
	add	sl, r4, #1
	mov	r6, #0
	mov	r8, r5
.L850:
	mov	r0, sl
	mov	r1, r7
	ldrb	r2, [r4, #0]	@ zero_extendqisi2
	bl	FlashMemCmp8
	cmp	r0, #0
	bne	.L848
	ldrb	r1, [r4, #13]	@ zero_extendqisi2
	ldr	r0, [r5, #856]
	ldrb	r3, [r5, #3762]	@ zero_extendqisi2
	mul	r0, r0, r1
	ldrh	r1, [r4, #14]
	add	r2, r5, r3, asl #2
	and	r1, r1, #65280
	mul	r1, r1, r0
	str	r1, [r2, #3588]
	ldrb	r0, [r4, #23]	@ zero_extendqisi2
	cmp	r0, #0
	movne	r1, r1, asl #1
	strne	r1, [r2, #3588]
	add	r2, r8, r3
	add	r3, r3, #1
	strb	r3, [r8, #3762]
	strb	r6, [r2, #3764]
.L848:
	add	r6, r6, #1
	add	r7, r7, #8
	cmp	r6, #4
	bne	.L850
.L847:
	ldr	r3, .L853+8
	ldrb	r1, [r4, #13]	@ zero_extendqisi2
	ldr	r2, .L853
	ldrb	r3, [r3, #3762]	@ zero_extendqisi2
	mul	r1, r1, r3
	ldrh	r3, [r4, #14]
	mul	r1, r3, r1
	ldr	r3, .L853+24
	strh	r1, [r2, r3]	@ movhi
	ldmfd	sp!, {r3, r4, r5, r6, r7, r8, sl, pc}
.L854:
	.align	2
.L853:
	.word	.LANCHOR2
	.word	.LANCHOR1
	.word	.LANCHOR0
	.word	.LANCHOR0+3764
	.word	.LANCHOR0+3588
	.word	.LANCHOR0+3628
	.word	-882
	.fnend
	.size	FlashDieInfoInit, .-FlashDieInfoInit
	.align	2
	.global	BuildFlashLsbPageTable
	.type	BuildFlashLsbPageTable, %function
BuildFlashLsbPageTable:
	.fnstart
	@ args = 0, pretend = 0, frame = 0
	@ frame_needed = 0, uses_anonymous_args = 0
	cmp	r0, #0
	stmfd	sp!, {r4, lr}
	.save {r4, lr}
	mov	r4, r1
	bne	.L856
	ldr	r3, .L898
.L857:
	strh	r0, [r3, #2]!	@ movhi
	add	r0, r0, #1
	uxth	r0, r0
	cmp	r0, #256
	bne	.L857
	b	.L858
.L856:
	cmp	r0, #1
	bne	.L859
	ldr	r0, .L898+4
	mov	r2, #0
	mov	r3, r2
.L862:
	uxth	r1, r3
	cmp	r1, #3
	bls	.L860
	tst	r3, #1
	moveq	r1, #2
	movne	r1, #3
	rsb	r1, r1, r2
	uxth	r1, r1
.L860:
	add	r3, r3, #1
	strh	r1, [r2, r0]	@ movhi
	cmp	r3, #256
	add	r2, r2, #2
	bne	.L862
	b	.L858
.L859:
	cmp	r0, #2
	bne	.L863
	mov	r3, #0
	ldr	r0, .L898
	movw	r2, #65535
	mov	r1, r3
	b	.L897
.L866:
	cmp	r3, #1
	movls	r1, r3
	movhi	r1, r2
.L897:
	add	r3, r3, #1
	add	r2, r2, #2
	strh	r1, [r0, #2]!	@ movhi
	uxth	r3, r3
	uxth	r2, r2
	cmp	r3, #256
	bne	.L866
	b	.L858
.L863:
	cmp	r0, #3
	bne	.L867
	ldr	r0, .L898+4
	mov	r2, #0
	mov	r3, r2
.L870:
	uxth	r1, r3
	cmp	r1, #5
	bls	.L868
	tst	r3, #1
	moveq	r1, #4
	movne	r1, #5
	rsb	r1, r1, r2
	uxth	r1, r1
.L868:
	add	r3, r3, #1
	strh	r1, [r2, r0]	@ movhi
	cmp	r3, #256
	add	r2, r2, #2
	bne	.L870
	b	.L858
.L867:
	cmp	r0, #4
	mov	r2, #0
	bne	.L871
	ldr	r3, .L898+8
	movw	r1, #3076
	strh	r2, [r3, r1]	@ movhi
	movw	r2, #3078
	mov	r1, #1
	strh	r1, [r3, r2]	@ movhi
	mov	r1, #2
	add	r2, r2, r1
	strh	r1, [r3, r2]	@ movhi
	add	r2, r2, #2
	mov	r1, #3
	strh	r1, [r3, r2]	@ movhi
	add	r2, r2, #2
	mov	r1, #5
	strh	r0, [r3, r2]	@ movhi
	add	r2, r2, #2
	ldr	r0, .L898+12
	strh	r1, [r3, r2]	@ movhi
	mov	r2, #3088
	mov	r1, #7
	strh	r1, [r3, r2]	@ movhi
	add	r2, r2, #2
	mov	r1, #8
	strh	r1, [r3, r2]	@ movhi
	mov	r2, #16
	mov	r3, r1
.L873:
	tst	r3, #1
	add	r3, r3, #1
	moveq	r1, #6
	movne	r1, #7
	cmp	r3, #256
	rsb	r1, r1, r2
	add	r2, r2, #2
	strh	r1, [r0, #2]!	@ movhi
	uxth	r2, r2
	bne	.L873
	b	.L858
.L871:
	cmp	r0, #5
	bne	.L874
	ldr	r1, .L898
	mov	r3, r2
.L875:
	strh	r3, [r1, #2]!	@ movhi
	add	r3, r3, #1
	uxth	r3, r3
	cmp	r3, #16
	bne	.L875
	ldr	r2, .L898+16
.L876:
	strh	r3, [r2, #2]!	@ movhi
	add	r3, r3, #2
	uxth	r3, r3
	cmp	r3, #496
	bne	.L876
	b	.L858
.L874:
	cmp	r0, #6
	bne	.L877
	ldr	r0, .L898
	mov	r3, r2
.L880:
	uxth	r1, r3
	cmp	r1, #5
	bls	.L878
	tst	r3, #1
	moveq	r1, #10
	movne	r1, #12
	rsb	r1, r1, r2
	uxth	r1, r1
.L878:
	add	r3, r3, #1
	add	r2, r2, #3
	cmp	r3, #256
	strh	r1, [r0, #2]!	@ movhi
	uxth	r2, r2
	bne	.L880
	b	.L858
.L877:
	cmp	r0, #9
	bne	.L858
	ldr	r3, .L898+8
	movw	r1, #3076
	strh	r2, [r3, r1]	@ movhi
	movw	r2, #3078
	mov	r1, #1
	strh	r1, [r3, r2]	@ movhi
	mov	r1, #2
	add	r2, r2, r1
	strh	r1, [r3, r2]	@ movhi
	mov	r3, #3
	ldr	r2, .L898+20
	movw	r1, #509
.L881:
	strh	r3, [r2, #2]!	@ movhi
	add	r3, r3, #2
	uxth	r3, r3
	cmp	r3, r1
	bne	.L881
.L858:
	mov	r2, #1024
	ldr	r0, .L898+24
	mov	r1, #255
	uxth	r4, r4
	bl	ftl_memset
	ldr	r2, .L898
	mov	r3, #0
	ldr	r0, .L898+28
	b	.L882
.L883:
	ldrh	r1, [r2, #2]!
	add	r3, r3, #1
	uxth	r3, r3
	add	ip, r0, r1, asl #1
	sub	ip, ip, #880
	strh	r1, [ip, #0]	@ movhi
.L882:
	cmp	r3, r4
	bcc	.L883
	ldmfd	sp!, {r4, pc}
.L899:
	.align	2
.L898:
	.word	.LANCHOR0+3074
	.word	.LANCHOR0+3076
	.word	.LANCHOR0
	.word	.LANCHOR0+3090
	.word	.LANCHOR0+3106
	.word	.LANCHOR0+3080
	.word	.LANCHOR2-880
	.word	.LANCHOR2
	.fnend
	.size	BuildFlashLsbPageTable, .-BuildFlashLsbPageTable
	.align	2
	.global	ftl_memcpy
	.type	ftl_memcpy, %function
ftl_memcpy:
	.fnstart
	@ args = 0, pretend = 0, frame = 0
	@ frame_needed = 0, uses_anonymous_args = 0
	@ link register save eliminated.
	b	memcpy
	.fnend
	.size	ftl_memcpy, .-ftl_memcpy
	.align	2
	.global	ftl_memcpy32
	.type	ftl_memcpy32, %function
ftl_memcpy32:
	.fnstart
	@ args = 0, pretend = 0, frame = 0
	@ frame_needed = 0, uses_anonymous_args = 0
	mov	r3, #0
	stmfd	sp!, {r4, lr}
	.save {r4, lr}
	mov	ip, r3
	b	.L902
.L903:
	ldr	r4, [r1, r3]
	add	ip, ip, #1
	str	r4, [r0, r3]
	add	r3, r3, #4
.L902:
	cmp	ip, r2
	bne	.L903
	ldmfd	sp!, {r4, pc}
	.fnend
	.size	ftl_memcpy32, .-ftl_memcpy32
	.align	2
	.global	ftl_memcmp
	.type	ftl_memcmp, %function
ftl_memcmp:
	.fnstart
	@ args = 0, pretend = 0, frame = 0
	@ frame_needed = 0, uses_anonymous_args = 0
	@ link register save eliminated.
	b	memcmp
	.fnend
	.size	ftl_memcmp, .-ftl_memcmp
	.align	2
	.global	timer_get_time
	.type	timer_get_time, %function
timer_get_time:
	.fnstart
	@ args = 0, pretend = 0, frame = 0
	@ frame_needed = 0, uses_anonymous_args = 0
	@ link register save eliminated.
	ldr	r3, .L906
	ldr	r0, [r3, #0]
	b	jiffies_to_msecs
.L907:
	.align	2
.L906:
	.word	jiffies
	.fnend
	.size	timer_get_time, .-timer_get_time
	.align	2
	.global	FlashSramLoadStore
	.type	FlashSramLoadStore, %function
FlashSramLoadStore:
	.fnstart
	@ args = 0, pretend = 0, frame = 0
	@ frame_needed = 0, uses_anonymous_args = 0
	stmfd	sp!, {r4, lr}
	.save {r4, lr}
	cmp	r2, #0
	ldr	r4, .L911
	mov	ip, r0
	mov	r2, r3
	ldr	r4, [r4, #144]
	add	r4, r4, #4096
	add	r1, r4, r1
	movne	r0, r1
	movne	r1, ip
	ldmfd	sp!, {r4, lr}
	b	memcpy
.L912:
	.align	2
.L911:
	.word	.LANCHOR2
	.fnend
	.size	FlashSramLoadStore, .-FlashSramLoadStore
	.align	2
	.global	FlashCs123Init
	.type	FlashCs123Init, %function
FlashCs123Init:
	.fnstart
	@ args = 0, pretend = 0, frame = 0
	@ frame_needed = 0, uses_anonymous_args = 0
	@ link register save eliminated.
	bx	lr
	.fnend
	.size	FlashCs123Init, .-FlashCs123Init
	.align	2
	.global	rk_nand_suspend
	.type	rk_nand_suspend, %function
rk_nand_suspend:
	.fnstart
	@ args = 0, pretend = 0, frame = 0
	@ frame_needed = 0, uses_anonymous_args = 0
	@ link register save eliminated.
	b	ftl_flash_suspend
	.fnend
	.size	rk_nand_suspend, .-rk_nand_suspend
	.align	2
	.global	rk_nand_resume
	.type	rk_nand_resume, %function
rk_nand_resume:
	.fnstart
	@ args = 0, pretend = 0, frame = 0
	@ frame_needed = 0, uses_anonymous_args = 0
	@ link register save eliminated.
	b	ftl_flash_resume
	.fnend
	.size	rk_nand_resume, .-rk_nand_resume
	.align	2
	.global	rk_ftl_get_capacity
	.type	rk_ftl_get_capacity, %function
rk_ftl_get_capacity:
	.fnstart
	@ args = 0, pretend = 0, frame = 0
	@ frame_needed = 0, uses_anonymous_args = 0
	@ link register save eliminated.
	ldr	r3, .L917
	ldr	r0, [r3, #3960]
	bx	lr
.L918:
	.align	2
.L917:
	.word	.LANCHOR0
	.fnend
	.size	rk_ftl_get_capacity, .-rk_ftl_get_capacity
	.align	2
	.global	rk_nandc_get_irq_status
	.type	rk_nandc_get_irq_status, %function
rk_nandc_get_irq_status:
	.fnstart
	@ args = 0, pretend = 0, frame = 0
	@ frame_needed = 0, uses_anonymous_args = 0
	@ link register save eliminated.
	ldr	r0, [r0, #372]
	bx	lr
	.fnend
	.size	rk_nandc_get_irq_status, .-rk_nandc_get_irq_status
	.align	2
	.global	rknand_proc_ftlread
	.type	rknand_proc_ftlread, %function
rknand_proc_ftlread:
	.fnstart
	@ args = 0, pretend = 0, frame = 0
	@ frame_needed = 0, uses_anonymous_args = 0
	@ link register save eliminated.
	b	ftl_proc_ftl_read
	.fnend
	.size	rknand_proc_ftlread, .-rknand_proc_ftlread
	.align	2
	.global	ReadFlashInfo
	.type	ReadFlashInfo, %function
ReadFlashInfo:
	.fnstart
	@ args = 0, pretend = 0, frame = 0
	@ frame_needed = 0, uses_anonymous_args = 0
	@ link register save eliminated.
	b	ftl_read_flash_info
	.fnend
	.size	ReadFlashInfo, .-ReadFlashInfo
	.align	2
	.global	rknand_print_hex
	.type	rknand_print_hex, %function
rknand_print_hex:
	.fnstart
	@ args = 0, pretend = 0, frame = 0
	@ frame_needed = 0, uses_anonymous_args = 0
	stmfd	sp!, {r3, r4, r5, r6, r7, r8, sl, lr}
	.save {r3, r4, r5, r6, r7, r8, sl, lr}
	mov	r5, #0
	mov	r8, r0
	mov	r6, r1
	mov	r7, r2
	mov	sl, r3
	mov	r4, r5
	b	.L923
.L929:
	cmp	r5, #0
	bne	.L924
	ldr	r0, .L931
	mov	r1, r8
	mov	r2, r6
	mov	r3, r4
	bl	printk
.L924:
	cmp	r7, #4
	ldreq	r0, .L931+4
	ldreq	r1, [r6, r4, asl #2]
	beq	.L930
	cmp	r7, #2
	moveq	r3, r4, asl #1
	ldreq	r0, .L931+4
	ldreqsh	r1, [r6, r3]
	ldrne	r0, .L931+4
	ldrneb	r1, [r6, r4]	@ zero_extendqisi2
.L930:
	add	r5, r5, #1
	bl	printk
	cmp	r5, #15
	bls	.L928
	ldr	r0, .L931+8
	mov	r5, #0
	ldr	r1, .L931+12
	bl	printk
.L928:
	add	r4, r4, #1
.L923:
	cmp	r4, sl
	bne	.L929
	ldr	r0, .L931+8
	ldr	r1, .L931+12
	ldmfd	sp!, {r3, r4, r5, r6, r7, r8, sl, lr}
	b	printk
.L932:
	.align	2
.L931:
	.word	.LC85
	.word	.LC86
	.word	.LC77
	.word	.LC87
	.fnend
	.size	rknand_print_hex, .-rknand_print_hex
	.align	2
	.global	NandcXferComp
	.type	NandcXferComp, %function
NandcXferComp:
	.fnstart
	@ args = 0, pretend = 0, frame = 8
	@ frame_needed = 0, uses_anonymous_args = 0
	stmfd	sp!, {r0, r1, r4, r5, r6, lr}
	.save {r0, r1, r4, r5, r6, lr}
	ldr	r6, .L956
	add	r0, r6, r0, asl #3
	ldr	r3, [r6, #3788]
	ldr	r4, [r0, #864]
	cmp	r3, #3
	bls	.L950
	ldr	r3, [r4, #16]
	tst	r3, #4
	beq	.L950
	mov	r0, r4
	bl	wait_for_nandc_xfer_completed
	ldr	r5, [r4, #16]
	ldr	r3, [r4, #8]
	ands	r5, r5, #2
	str	r3, [sp, #0]
	movne	r5, #0
	bne	.L954
	b	.L955
.L940:
	ldr	r3, [r6, #3788]
	cmp	r3, #5
	bls	.L937
	ldr	r3, [r4, #0]
	str	r3, [sp, #4]
	ldr	r3, [sp, #4]
	tst	r3, #8192
	beq	.L937
	ldr	r3, [sp, #4]
	tst	r3, #131072
	bne	.L938
.L937:
	add	r5, r5, #1
	bic	r3, r5, #-16777216
	cmp	r3, #0
	bne	.L954
	ldr	r2, [r4, #28]
	mov	r1, r5
	ldr	r3, [sp, #0]
	ubfx	r2, r2, #16, #5
	ldr	r0, .L956+4
	ubfx	r3, r3, #22, #6
	bl	printk
	ldr	r0, .L956+8
	mov	r1, r4
	mov	r2, #4
	mov	r3, #512
	bl	rknand_print_hex
.L954:
	ldr	r2, [r4, #28]
	ldr	r3, [sp, #0]
	ubfx	r2, r2, #16, #5
	ubfx	r3, r3, #22, #6
	cmp	r2, r3
	blt	.L940
.L938:
	ldr	r4, .L956
	ldr	r3, [r4, #3824]
	cmp	r3, #0
	beq	.L941
	ldr	r1, [sp, #0]
	mov	r2, #0
	ldr	r0, [r4, #3816]
	ubfx	r1, r1, #22, #5
	mov	r1, r1, asl #10
	bl	rknand_dma_unmap_single
	ldr	r1, [sp, #0]
	ldr	r0, [r4, #3820]
	mov	r2, #0
	ubfx	r1, r1, #22, #5
	mov	r1, r1, asl #7
	bl	rknand_dma_unmap_single
	b	.L941
.L944:
	ldr	r3, [r4, #8]
	add	r5, r5, #1
	str	r3, [sp, #0]
	bic	r3, r5, #-16777216
	cmp	r3, #0
	bne	.L955
	ldr	r2, [sp, #0]
	mov	r1, r5
	ldr	r3, [r4, #28]
	ldr	r0, .L956+12
	ubfx	r3, r3, #16, #5
	bl	printk
	ldr	r0, .L956+8
	mov	r1, r4
	mov	r2, #4
	mov	r3, #512
	bl	rknand_print_hex
.L955:
	ldr	r3, [sp, #0]
	tst	r3, #1048576
	beq	.L944
	ldr	r6, .L956
	ldr	r3, [r6, #3832]
	cmp	r3, #0
	beq	.L945
	mov	r0, r4
	bl	NandcSendDumpDataStart
.L945:
	ldr	r3, [r6, #3824]
	ldr	r5, .L956
	cmp	r3, #0
	beq	.L946
	ldr	r1, [sp, #0]
	mov	r2, #1
	ldr	r0, [r5, #3816]
	ubfx	r1, r1, #22, #5
	mov	r1, r1, asl #10
	bl	rknand_dma_unmap_single
	ldr	r1, [sp, #0]
	ldr	r0, [r5, #3820]
	mov	r2, #1
	ubfx	r1, r1, #22, #5
	mov	r1, r1, asl #7
	bl	rknand_dma_unmap_single
.L946:
	ldr	r3, .L956
	ldr	r3, [r3, #3832]
	cmp	r3, #0
	beq	.L941
	mov	r0, r4
	bl	NandcSendDumpDataDone
.L941:
	ldr	r3, .L956
	mov	r2, #0
	str	r2, [r3, #3824]
	b	.L933
.L950:
	ldr	r3, [r4, #8]
	str	r3, [sp, #0]
	ldr	r3, [sp, #0]
	tst	r3, #1048576
	beq	.L950
.L933:
	ldmfd	sp!, {r2, r3, r4, r5, r6, pc}
.L957:
	.align	2
.L956:
	.word	.LANCHOR0
	.word	.LC88
	.word	.LC89
	.word	.LC90
	.fnend
	.size	NandcXferComp, .-NandcXferComp
	.align	2
	.global	NandcXferData
	.type	NandcXferData, %function
NandcXferData:
	.fnstart
	@ args = 4, pretend = 0, frame = 80
	@ frame_needed = 0, uses_anonymous_args = 0
	stmfd	sp!, {r4, r5, r6, r7, r8, r9, sl, fp, lr}
	.save {r4, r5, r6, r7, r8, r9, sl, fp, lr}
	mov	r4, r3
	mov	r9, r3
	ldr	r3, .L996
	.pad #92
	sub	sp, sp, #92
	tst	r4, #63
	add	r3, r3, r0, asl #3
	mov	r7, r0
	mov	fp, r1
	mov	sl, r2
	ldr	r5, [sp, #128]
	ldr	r6, [r3, #864]
	bne	.L959
	cmp	r5, #0
	bne	.L960
	add	r0, sp, #24
	mov	r1, #255
	mov	r2, #64
	add	r5, sp, #24
	bl	ftl_memset
.L960:
	mov	r0, r7
	mov	r1, fp
	mov	r2, sl
	mov	r3, #0
	stmia	sp, {r4, r5}
	bl	NandcXferStart
	mov	r0, r7
	bl	NandcXferComp
	cmp	fp, #0
	movne	r4, #0
	bne	.L961
	ldr	r1, .L996
	mov	r0, sl, lsr #1
	mov	r3, fp
	mov	r2, fp
	ldr	ip, [r1, #3836]
	mov	r4, r1
	cmp	ip, #24
	movhi	ip, #128
	movls	ip, #64
	b	.L963
.L964:
	ldr	r1, [r4, #3804]
	mov	r3, r3, lsr #2
	add	r2, r2, #1
	ldr	r3, [r1, r3, asl #2]
	mov	r1, r3, lsr #8
	strb	r3, [r5, #0]
	strb	r1, [r5, #1]
	mov	r1, r3, lsr #16
	mov	r3, r3, lsr #24
	strb	r1, [r5, #2]
	strb	r3, [r5, #3]
	add	r5, r5, #4
	mov	r3, r7
.L963:
	cmp	r2, r0
	add	r7, r3, ip
	ldr	r1, .L996
	bcc	.L964
	mov	r3, #0
	ldr	r0, [r1, #3836]
	mov	sl, sl, lsr #2
	ldr	r1, [r1, #3788]
	mov	r4, r3
	b	.L965
.L971:
	add	r2, r3, #8
	ldr	r2, [r6, r2, asl #2]
	str	r2, [sp, #20]
	ldr	r2, [sp, #20]
	tst	r2, #4
	bne	.L986
	ldr	r2, [sp, #20]
	ands	r2, r2, #32768
	bne	.L986
	cmp	r1, #5
	bls	.L967
	ldr	r7, [sp, #20]
	ldr	ip, [sp, #20]
	ldr	r5, [sp, #20]
	ubfx	r7, r7, #3, #5
	ldr	r2, [sp, #20]
	ubfx	ip, ip, #27, #1
	ubfx	r5, r5, #16, #5
	ubfx	r2, r2, #29, #1
	orr	ip, r7, ip, asl #5
	orr	r2, r5, r2, asl #5
	cmp	ip, r2
	ldr	ip, [sp, #20]
	ldrhi	r2, [sp, #20]
	ubfxhi	ip, ip, #3, #5
	ldrls	r2, [sp, #20]
	ubfxls	ip, ip, #16, #5
	ubfxhi	r2, r2, #27, #1
	ubfxls	r2, r2, #29, #1
	b	.L994
.L967:
	cmp	r1, #3
	bls	.L969
	ldr	r7, [sp, #20]
	ldr	ip, [sp, #20]
	ldr	r5, [sp, #20]
	ubfx	r7, r7, #3, #5
	ldr	r2, [sp, #20]
	ubfx	ip, ip, #28, #1
	ubfx	r5, r5, #16, #5
	ubfx	r2, r2, #30, #1
	orr	ip, r7, ip, asl #5
	orr	r2, r5, r2, asl #5
	cmp	ip, r2
	ldr	ip, [sp, #20]
	ldrhi	r2, [sp, #20]
	ubfxhi	ip, ip, #3, #5
	ldrls	r2, [sp, #20]
	ubfxls	ip, ip, #16, #5
	ubfxhi	r2, r2, #28, #1
	ubfxls	r2, r2, #30, #1
.L994:
	orr	r2, ip, r2, asl #5
.L969:
	cmp	r4, r2
	movcc	r4, r2
	b	.L966
.L986:
	mvn	r4, #0
.L966:
	add	r3, r3, #1
.L965:
	cmp	r3, sl
	bcs	.L961
	cmp	r0, #0
	bne	.L971
.L961:
	mov	r3, #0
	str	r3, [r6, #16]
	b	.L972
.L959:
	cmp	r1, #1
	mov	r8, #0
	bne	.L992
	b	.L973
.L976:
	cmp	r5, #0
	and	r4, r8, #3
	mov	r0, r6
	mov	r1, #1
	movne	r3, #2
	moveq	r3, #0
	mla	r3, r8, r3, r5
	mov	r2, r4
	add	r8, r8, #2
	str	r3, [sp, #0]
	mov	r3, r9
	bl	NandcCopy1KB
	mov	r3, #0
	mov	r0, r7
	str	r3, [sp, #0]
	str	r3, [sp, #4]
	mov	r1, #1
	mov	r2, #2
	mov	r3, r4
	bl	NandcXferStart
	mov	r0, r7
	bl	NandcXferComp
	add	r9, r9, #1024
.L973:
	cmp	r8, sl
	bcc	.L976
	mov	r4, #0
	b	.L972
.L992:
	mov	r1, r8
	mov	r2, #2
	mov	r3, r8
	str	r8, [sp, #0]
	str	r8, [sp, #4]
	mov	r4, r8
	bl	NandcXferStart
	str	fp, [sp, #12]
	mov	ip, r8
	mov	fp, r6
	mov	r6, r5
	b	.L995
.L981:
	mov	r0, r7
	bl	NandcXferComp
	ldr	r3, [fp, #32]
	add	ip, r5, #2
	cmp	ip, sl
	str	r3, [sp, #20]
	bcs	.L978
	mov	r3, #0
	mov	r0, r7
	str	r3, [sp, #0]
	mov	r1, r3
	str	r3, [sp, #4]
	mov	r2, #2
	and	r3, ip, #3
	str	ip, [sp, #8]
	bl	NandcXferStart
	ldr	ip, [sp, #8]
.L978:
	ldr	r3, [sp, #20]
	tst	r3, #4
	mvnne	r4, #0
	bne	.L979
	ldr	r2, [sp, #20]
	ldr	r3, [sp, #20]
	ubfx	r2, r2, #3, #5
	ubfx	r3, r3, #27, #1
	orr	r3, r2, r3, asl #5
	cmp	r4, r3
	movcc	r4, r3
.L979:
	cmp	r6, #0
	and	r2, r8, #3
	mov	r0, fp
	mov	r1, #0
	movne	r3, #2
	moveq	r3, #0
	mla	r5, r5, r3, r6
	mov	r3, r9
	str	ip, [sp, #8]
	add	r8, r8, #2
	add	r9, r9, #1024
	str	r5, [sp, #0]
	bl	NandcCopy1KB
	ldr	ip, [sp, #8]
.L995:
	cmp	ip, sl
	mov	r5, ip
	bcc	.L981
	mov	r6, fp
	ldr	fp, [sp, #12]
.L972:
	ldr	r3, .L996
	rsbs	fp, fp, #1
	movcc	fp, #0
	ldr	r3, [r3, #3788]
	cmp	r3, #5
	movls	fp, #0
	cmp	fp, #0
	beq	.L982
	ldr	r3, [r6, #0]
	and	r2, r3, #139264
	cmp	r2, #139264
	orreq	r3, r3, #131072
	streq	r3, [r6, #0]
	mvneq	r4, #0
.L982:
	mov	r0, r4
	add	sp, sp, #92
	ldmfd	sp!, {r4, r5, r6, r7, r8, r9, sl, fp, pc}
.L997:
	.align	2
.L996:
	.word	.LANCHOR0
	.fnend
	.size	NandcXferData, .-NandcXferData
	.align	2
	.global	FlashProgPage
	.type	FlashProgPage, %function
FlashProgPage:
	.fnstart
	@ args = 0, pretend = 0, frame = 0
	@ frame_needed = 0, uses_anonymous_args = 0
	stmfd	sp!, {r0, r1, r4, r5, r6, r7, r8, lr}
	.save {r0, r1, r4, r5, r6, r7, r8, lr}
	mov	r8, r3
	ldr	r3, .L1001
	subs	r4, r0, #0
	mov	r5, r1
	mov	r6, r2
	ldrb	r7, [r3, #3125]	@ zero_extendqisi2
	bne	.L999
	ldr	r3, .L1001+4
	ldrb	r2, [r3, #853]	@ zero_extendqisi2
	ldr	r1, [r3, #856]
	mul	r2, r1, r2
	cmp	r5, r2
	bcs	.L999
	ldrb	r3, [r3, #852]	@ zero_extendqisi2
	cmp	r3, #0
	subeq	r7, r7, #2
	movne	r7, #4
.L999:
	mov	r0, r4
	bl	NandcWaitFlashReady
	mov	r0, r4
	bl	NandcFlashCs
	mov	r0, r4
	mov	r1, r5
	bl	FlashProgFirstCmd
	uxtb	r2, r7
	mov	r3, r6
	mov	r0, r4
	mov	r1, #1
	str	r8, [sp, #0]
	bl	NandcXferData
	mov	r1, r5
	mov	r0, r4
	bl	FlashProgSecondCmd
	mov	r0, r4
	bl	NandcWaitFlashReady
	mov	r1, r5
	mov	r0, r4
	bl	FlashReadStatus
	mov	r5, r0
	mov	r0, r4
	bl	NandcFlashDeCs
	and	r0, r5, #1
	ldmfd	sp!, {r2, r3, r4, r5, r6, r7, r8, pc}
.L1002:
	.align	2
.L1001:
	.word	.LANCHOR1
	.word	.LANCHOR0
	.fnend
	.size	FlashProgPage, .-FlashProgPage
	.align	2
	.global	FlashPageProgMsbFFData
	.type	FlashPageProgMsbFFData, %function
FlashPageProgMsbFFData:
	.fnstart
	@ args = 0, pretend = 0, frame = 0
	@ frame_needed = 0, uses_anonymous_args = 0
	ldr	r3, .L1013
	stmfd	sp!, {r4, r5, r6, r7, r8, r9, sl, lr}
	.save {r4, r5, r6, r7, r8, r9, sl, lr}
	mov	r5, r2
	ldr	r2, [r3, #3624]
	mov	r9, r0
	mov	sl, r1
	ldrb	r4, [r2, #19]	@ zero_extendqisi2
	ldrb	r2, [r3, #3072]	@ zero_extendqisi2
	cmp	r2, #0
	beq	.L1004
	ldr	r3, [r3, #3776]
	cmp	r3, #0
	ldmnefd	sp!, {r4, r5, r6, r7, r8, r9, sl, pc}
.L1004:
	sub	r3, r4, #5
	uxtb	r3, r3
	cmp	r4, #68
	cmpne	r3, #3
	bls	.L1007
	cmp	r4, #35
	cmpne	r4, #19
	beq	.L1007
	ldmfd	sp!, {r4, r5, r6, r7, r8, r9, sl, pc}
.L1010:
	add	r3, r6, r5, asl #1
	sub	r3, r3, #880
	ldrh	r2, [r3, #0]
	movw	r3, #65535
	cmp	r2, r3
	ldmnefd	sp!, {r4, r5, r6, r7, r8, r9, sl, pc}
	cmp	r4, #8
	mov	r2, #32768
	ldr	r0, [r6, #148]
	moveq	r1, #0
	movne	r1, #255
	bl	ftl_memset
	ldr	r2, [r8, #148]
	add	r1, r5, sl
	add	r5, r5, #1
	mov	r0, r9
	mov	r3, r2
	uxth	r5, r5
	bl	FlashProgPage
	b	.L1011
.L1007:
	ldr	r6, .L1013+4
	ldr	r7, .L1013
	mov	r8, r6
.L1011:
	ldr	r3, [r7, #3624]
	ldrh	r3, [r3, #10]
	cmp	r3, r5
	bhi	.L1010
	ldmfd	sp!, {r4, r5, r6, r7, r8, r9, sl, pc}
.L1014:
	.align	2
.L1013:
	.word	.LANCHOR0
	.word	.LANCHOR2
	.fnend
	.size	FlashPageProgMsbFFData, .-FlashPageProgMsbFFData
	.align	2
	.global	FlashReadRawPage
	.type	FlashReadRawPage, %function
FlashReadRawPage:
	.fnstart
	@ args = 0, pretend = 0, frame = 0
	@ frame_needed = 0, uses_anonymous_args = 0
	stmfd	sp!, {r0, r1, r4, r5, r6, r7, r8, lr}
	.save {r0, r1, r4, r5, r6, r7, r8, lr}
	mov	r8, r3
	ldr	r3, .L1018
	subs	r4, r0, #0
	mov	r6, r1
	mov	r5, r2
	ldrb	r7, [r3, #3125]	@ zero_extendqisi2
	bne	.L1016
	ldr	r3, .L1018+4
	ldrb	r2, [r3, #853]	@ zero_extendqisi2
	ldr	r3, [r3, #856]
	mul	r3, r3, r2
	cmp	r1, r3
	movcc	r7, #4
.L1016:
	mov	r0, r4
	bl	NandcWaitFlashReady
	mov	r0, r4
	bl	NandcFlashCs
	mov	r1, r6
	mov	r0, r4
	bl	FlashReadCmd
	mov	r0, r4
	bl	NandcWaitFlashReady
	mov	r3, r5
	mov	r1, #0
	mov	r2, r7
	mov	r0, r4
	str	r8, [sp, #0]
	bl	NandcXferData
	mov	r5, r0
	mov	r0, r4
	bl	NandcFlashDeCs
	mov	r0, r5
	ldmfd	sp!, {r2, r3, r4, r5, r6, r7, r8, pc}
.L1019:
	.align	2
.L1018:
	.word	.LANCHOR1
	.word	.LANCHOR0
	.fnend
	.size	FlashReadRawPage, .-FlashReadRawPage
	.align	2
	.global	HynixReadRetrial
	.type	HynixReadRetrial, %function
HynixReadRetrial:
	.fnstart
	@ args = 0, pretend = 0, frame = 8
	@ frame_needed = 0, uses_anonymous_args = 0
	stmfd	sp!, {r0, r1, r2, r4, r5, r6, r7, r8, r9, sl, fp, lr}
	.save {r0, r1, r2, r4, r5, r6, r7, r8, r9, sl, fp, lr}
	mov	r7, r3
	ldr	r3, .L1034
	mov	sl, r2
	ldr	fp, .L1034
	mov	r6, r0
	add	r2, r3, r0
	str	r1, [sp, #4]
	ldrb	r9, [r3, #2]	@ zero_extendqisi2
	mov	r8, #0
	ldr	r3, [r3, #3624]
	mvn	r5, #0
	ldrb	r4, [r2, #12]	@ zero_extendqisi2
	ldrb	r3, [r3, #19]	@ zero_extendqisi2
	sub	r3, r3, #7
	uxtb	r3, r3
	cmp	r3, #1
	ldrlsb	r4, [r2, #20]	@ zero_extendqisi2
	bl	NandcWaitFlashReady
	mov	ip, fp
	b	.L1022
.L1027:
	add	r4, r4, #1
	ldrb	r1, [fp, #1]	@ zero_extendqisi2
	mov	r0, r6
	ldr	r2, .L1034+4
	uxtb	r4, r4
	str	ip, [sp, #0]
	cmp	r4, r9
	movcs	r4, #0
	mov	r3, r4
	bl	HynixSetRRPara
	mov	r0, r6
	ldr	r1, [sp, #4]
	mov	r2, sl
	mov	r3, r7
	bl	FlashReadRawPage
	ldr	ip, [sp, #0]
	cmn	r0, #1
	beq	.L1024
	ldrb	r3, [ip, #3840]	@ zero_extendqisi2
	cmn	r5, #1
	moveq	r5, r0
	add	r3, r3, r3, asl #1
	cmp	r0, r3, lsr #2
	bcc	.L1033
	mov	r7, #0
	mov	sl, r7
.L1024:
	add	r8, r8, #1
.L1022:
	cmp	r8, r9
	bcc	.L1027
	b	.L1026
.L1033:
	mov	r5, r0
.L1026:
	ldr	r3, .L1034
	add	r6, r3, r6
	ldr	r2, [r3, #3624]
	ldrb	r3, [r3, #3840]	@ zero_extendqisi2
	ldrb	r2, [r2, #19]	@ zero_extendqisi2
	add	r3, r3, r3, asl #1
	sub	r2, r2, #7
	uxtb	r2, r2
	cmp	r2, #1
	strlsb	r4, [r6, #20]
	strhib	r4, [r6, #12]
	adds	r0, r5, #1
	movne	r0, #1
	cmp	r5, r3, lsr #2
	movcc	r0, #0
	andcs	r0, r0, #1
	cmp	r0, #0
	moveq	r0, r5
	movne	r0, #256
	ldmfd	sp!, {r1, r2, r3, r4, r5, r6, r7, r8, r9, sl, fp, pc}
.L1035:
	.align	2
.L1034:
	.word	.LANCHOR0
	.word	.LANCHOR0+4
	.fnend
	.size	HynixReadRetrial, .-HynixReadRetrial
	.align	2
	.global	MicronReadRetrial
	.type	MicronReadRetrial, %function
MicronReadRetrial:
	.fnstart
	@ args = 0, pretend = 0, frame = 24
	@ frame_needed = 0, uses_anonymous_args = 0
	stmfd	sp!, {r4, r5, r6, r7, r8, r9, sl, fp, lr}
	.save {r4, r5, r6, r7, r8, r9, sl, fp, lr}
	mov	sl, r3
	ldr	r3, .L1054
	mov	r9, r0
	.pad #36
	sub	sp, sp, #36
	ldrb	r0, [r3, #3840]	@ zero_extendqisi2
	ldrb	r3, [r3, #3072]	@ zero_extendqisi2
	str	r1, [sp, #24]
	cmp	r3, #0
	str	r2, [sp, #20]
	addeq	r0, r0, r0, asl #1
	ubfxeq	r0, r0, #2, #8
	beq	.L1053
	mov	r1, #3
	bl	__aeabi_idiv
	uxtb	r0, r0
.L1053:
.L1038:
	mov	r2, #0
	ldr	r3, .L1054
	mvn	r4, #0
	mov	r6, r2
	add	r3, r3, r9, asl #3
	str	r0, [sp, #16]
	str	r2, [sp, #12]
	str	r3, [sp, #28]
.L1048:
	mov	r0, r9
	mov	fp, #0
	bl	NandcWaitFlashReady
	ldr	r2, [sp, #28]
	ldrb	r7, [r2, #868]	@ zero_extendqisi2
	ldr	r8, [r2, #864]
	add	r7, r7, #8
	add	r5, r8, r7, asl #8
	b	.L1039
.L1043:
	mov	r3, #239
	mov	r0, #200
	str	r3, [r5, #8]
	mov	r3, #137
	str	r3, [r5, #4]
	bl	NandcDelayns
	add	ip, fp, #1
	mov	r0, r9
	str	ip, [r5, #0]
	ldr	r1, [sp, #24]
	mov	r3, sl
	str	r6, [r5, #0]
	ldr	r2, [sp, #20]
	str	r6, [r5, #0]
	str	r6, [r5, #0]
	str	ip, [sp, #8]
	bl	FlashReadRawPage
	ldr	ip, [sp, #8]
	cmn	r0, #1
	beq	.L1040
	cmn	r4, #1
	ldr	r2, [sp, #16]
	moveq	r4, r0
	cmp	r0, r2
	bcc	.L1050
	mov	sl, #0
	str	sl, [sp, #20]
.L1040:
	mov	fp, ip
.L1039:
	ldr	r2, .L1054+4
	ldrb	r3, [r2, #152]	@ zero_extendqisi2
	cmp	fp, r3
	bcc	.L1043
	b	.L1042
.L1050:
	mov	r4, r0
	mov	sl, #0
	str	sl, [sp, #20]
.L1042:
	mov	r3, #239
	mov	r0, #200
	str	r3, [r5, #8]
	mov	r3, #137
	str	r3, [r5, #4]
	bl	NandcDelayns
	ldr	r2, [sp, #16]
	str	r6, [r8, r7, asl #8]
	cmp	r4, r2
	str	r6, [r8, r7, asl #8]
	str	r6, [r8, r7, asl #8]
	movcc	r3, #0
	movcs	r3, #1
	cmn	r4, #1
	str	r6, [r8, r7, asl #8]
	moveq	r3, #0
	cmp	r3, #0
	movne	r4, #256
	cmn	r4, #1
	movne	r5, #0
	moveq	r5, #1
	cmn	r4, #1
	cmpne	r4, #256
	bne	.L1045
	mov	r3, fp
	ldr	r0, .L1054+8
	mov	r1, fp
	ldr	r2, [sp, #24]
	str	r4, [sp, #0]
	bl	printk
	ldr	r3, [sp, #12]
	cmp	r3, #0
	bne	.L1046
	ldr	r2, .L1054
	ldrb	r3, [r2, #3072]	@ zero_extendqisi2
	cmp	r3, #0
	moveq	r5, #0
	andne	r5, r5, #1
	cmp	r5, #0
	beq	.L1047
	mov	r0, r9
	mov	r1, #3
	bl	micron_auto_read_calibration_config
	mov	r3, #1
	str	r3, [sp, #12]
	b	.L1048
.L1045:
	ldr	r2, [sp, #12]
	cmp	r2, #0
	beq	.L1047
.L1046:
	mov	r0, r9
	mov	r1, #0
	bl	micron_auto_read_calibration_config
	cmn	r4, #1
	movne	r4, #256
.L1047:
	mov	r0, r4
	add	sp, sp, #36
	ldmfd	sp!, {r4, r5, r6, r7, r8, r9, sl, fp, pc}
.L1055:
	.align	2
.L1054:
	.word	.LANCHOR0
	.word	.LANCHOR2
	.word	.LC91
	.fnend
	.size	MicronReadRetrial, .-MicronReadRetrial
	.align	2
	.global	SamsungReadRetrial
	.type	SamsungReadRetrial, %function
SamsungReadRetrial:
	.fnstart
	@ args = 0, pretend = 0, frame = 8
	@ frame_needed = 0, uses_anonymous_args = 0
	stmfd	sp!, {r0, r1, r2, r4, r5, r6, r7, r8, r9, sl, fp, lr}
	.save {r0, r1, r2, r4, r5, r6, r7, r8, r9, sl, fp, lr}
	mov	r8, r0
	mov	r7, r2
	mov	r6, r3
	mov	r9, r1
	bl	NandcWaitFlashReady
	ldr	ip, .L1065
	mov	r5, #1
	mvn	r4, #0
	ldr	fp, .L1065+4
	add	r3, ip, r8, asl #3
	ldrb	sl, [r3, #868]	@ zero_extendqisi2
	ldr	r2, [r3, #864]
	add	sl, sl, #8
	add	sl, r2, sl, asl #8
	b	.L1057
.L1061:
	mov	r0, sl
	uxtb	r1, r5
	str	ip, [sp, #4]
	bl	SamsungSetRRPara
	mov	r0, r8
	mov	r1, r9
	mov	r2, r7
	mov	r3, r6
	bl	FlashReadRawPage
	ldr	ip, [sp, #4]
	cmn	r0, #1
	beq	.L1058
	ldrb	r3, [ip, #3840]	@ zero_extendqisi2
	cmn	r4, #1
	moveq	r4, r0
	add	r3, r3, r3, asl #1
	cmp	r0, r3, lsr #2
	bcc	.L1064
	mov	r6, #0
	mov	r7, r6
.L1058:
	add	r5, r5, #1
.L1057:
	ldrb	r3, [fp, #152]	@ zero_extendqisi2
	add	r3, r3, #1
	cmp	r5, r3
	bcc	.L1061
	b	.L1060
.L1064:
	mov	r4, r0
.L1060:
	mov	r0, sl
	mov	r1, #0
	bl	SamsungSetRRPara
	ldr	r3, .L1065
	adds	r0, r4, #1
	ldrb	r3, [r3, #3840]	@ zero_extendqisi2
	movne	r0, #1
	add	r3, r3, r3, asl #1
	cmp	r4, r3, lsr #2
	movcc	r0, #0
	andcs	r0, r0, #1
	cmp	r0, #0
	moveq	r0, r4
	movne	r0, #256
	ldmfd	sp!, {r1, r2, r3, r4, r5, r6, r7, r8, r9, sl, fp, pc}
.L1066:
	.align	2
.L1065:
	.word	.LANCHOR0
	.word	.LANCHOR2
	.fnend
	.size	SamsungReadRetrial, .-SamsungReadRetrial
	.align	2
	.global	ToshibaReadRetrial
	.type	ToshibaReadRetrial, %function
ToshibaReadRetrial:
	.fnstart
	@ args = 0, pretend = 0, frame = 8
	@ frame_needed = 0, uses_anonymous_args = 0
	stmfd	sp!, {r0, r1, r2, r4, r5, r6, r7, r8, r9, sl, fp, lr}
	.save {r0, r1, r2, r4, r5, r6, r7, r8, r9, sl, fp, lr}
	mov	r8, r0
	str	r1, [sp, #4]
	mov	r9, r2
	mov	r7, r3
	bl	NandcWaitFlashReady
	ldr	r3, .L1088
	add	r2, r3, r8, asl #3
	ldr	r1, [r2, #864]
	ldrb	r4, [r2, #868]	@ zero_extendqisi2
	ldrb	r2, [r3, #3761]	@ zero_extendqisi2
	add	r4, r4, #8
	sub	r2, r2, #67
	add	r4, r1, r4, asl #8
	uxtb	r2, r2
	cmp	r2, #1
	movls	sl, #0
	bls	.L1068
	ldrb	sl, [r3, #3780]	@ zero_extendqisi2
	cmp	sl, #0
	beq	.L1069
	mov	r0, #0
	mov	sl, #1
	bl	NandcSetDdrMode
.L1069:
	mov	r3, #92
	str	r3, [r4, #8]
	mov	r3, #197
	str	r3, [r4, #8]
.L1068:
	mov	r6, #1
	mvn	r5, #0
	ldr	fp, .L1088
	b	.L1070
.L1079:
	ldrb	r3, [fp, #3761]	@ zero_extendqisi2
	mov	r0, r4
	uxtb	r1, r6
	sub	r3, r3, #67
	uxtb	r3, r3
	cmp	r3, #1
	bhi	.L1071
	bl	SandiskSetRRPara
	b	.L1072
.L1071:
	bl	ToshibaSetRRPara
.L1072:
	ldr	r2, .L1088
	ldrb	r3, [r2, #3761]	@ zero_extendqisi2
	cmp	r3, #34
	bne	.L1073
	ldr	r2, .L1088+4
	ldrb	r3, [r2, #152]	@ zero_extendqisi2
	sub	r3, r3, #3
	cmp	r6, r3
	moveq	r3, #179
	streq	r3, [r4, #8]
.L1073:
	cmp	sl, #0
	mov	r3, #38
	str	r3, [r4, #8]
	mov	r3, #93
	str	r3, [r4, #8]
	beq	.L1074
	mov	r0, #4
	bl	NandcSetDdrMode
	ldr	r1, [sp, #4]
	mov	r2, r9
	mov	r3, r7
	mov	r0, r8
	bl	FlashReadRawPage
	mov	r3, r0
	mov	r0, #0
	str	r3, [sp, #0]
	bl	NandcSetDdrMode
	ldr	r3, [sp, #0]
	b	.L1075
.L1074:
	mov	r3, r7
	mov	r0, r8
	ldr	r1, [sp, #4]
	mov	r2, r9
	bl	FlashReadRawPage
	mov	r3, r0
.L1075:
	cmn	r3, #1
	beq	.L1076
	ldrb	r2, [fp, #3840]	@ zero_extendqisi2
	cmn	r5, #1
	moveq	r5, r3
	add	r2, r2, r2, asl #1
	cmp	r3, r2, lsr #2
	bcc	.L1087
	mov	r7, #0
	mov	r9, r7
.L1076:
	add	r6, r6, #1
.L1070:
	ldr	r2, .L1088+4
	ldrb	r3, [r2, #152]	@ zero_extendqisi2
	add	r3, r3, #1
	cmp	r6, r3
	bcc	.L1079
	b	.L1078
.L1087:
	mov	r5, r3
.L1078:
	ldr	r6, .L1088
	mov	r0, r4
	mov	r1, #0
	ldrb	r3, [r6, #3761]	@ zero_extendqisi2
	sub	r3, r3, #67
	uxtb	r3, r3
	cmp	r3, #1
	bhi	.L1080
	bl	SandiskSetRRPara
	b	.L1081
.L1080:
	bl	ToshibaSetRRPara
.L1081:
	mov	r3, #255
	str	r3, [r4, #8]
	ldrb	r3, [r6, #3840]	@ zero_extendqisi2
	adds	r2, r5, #1
	mov	r0, r8
	movne	r2, #1
	add	r3, r3, r3, asl #1
	cmp	r5, r3, lsr #2
	movcc	r3, #0
	andcs	r3, r2, #1
	cmp	r3, #0
	movne	r5, #256
	bl	NandcWaitFlashReady
	cmp	sl, #0
	beq	.L1083
	mov	r0, #4
	bl	NandcSetDdrMode
.L1083:
	mov	r0, r5
	ldmfd	sp!, {r1, r2, r3, r4, r5, r6, r7, r8, r9, sl, fp, pc}
.L1089:
	.align	2
.L1088:
	.word	.LANCHOR0
	.word	.LANCHOR2
	.fnend
	.size	ToshibaReadRetrial, .-ToshibaReadRetrial
	.align	2
	.global	FlashSavePhyInfo
	.type	FlashSavePhyInfo, %function
FlashSavePhyInfo:
	.fnstart
	@ args = 0, pretend = 0, frame = 0
	@ frame_needed = 0, uses_anonymous_args = 0
	stmfd	sp!, {r3, r4, r5, r6, r7, r8, sl, lr}
	.save {r3, r4, r5, r6, r7, r8, sl, lr}
	mov	r6, #0
	ldr	r5, .L1097
	ldr	r7, .L1097+4
	ldr	r8, .L1097+8
	ldr	r3, [r5, #160]
	ldrb	r0, [r5, #164]	@ zero_extendqisi2
	str	r3, [r5, #156]
	bl	FlashBchSel
	mov	r1, #0
	mov	r2, #2048
	ldr	r0, [r5, #160]
	bl	ftl_memset
	ldr	r3, [r5, #156]
	add	r1, r7, #2976
	mov	r2, #32
	str	r8, [r3, #0]
	ldr	r4, [r5, #156]
	ldrb	r3, [r7, #3762]	@ zero_extendqisi2
	add	r0, r4, #16
	strh	r3, [r4, #12]	@ movhi
	ldrb	r3, [r7, #853]	@ zero_extendqisi2
	strh	r3, [r4, #14]	@ movhi
	ldrb	r3, [r7, #3780]	@ zero_extendqisi2
	str	r3, [r4, #1076]
	bl	memcpy
	add	r0, r4, #80
	ldr	r1, .L1097+12
	mov	r2, #8
	bl	memcpy
	add	r0, r4, #96
	ldr	r1, .L1097+16
	mov	r2, #32
	bl	memcpy
	ldr	r0, [r5, #156]
	ldr	r1, .L1097+20
	mov	r2, #32
	add	r0, r0, #160
	bl	memcpy
	ldr	r4, [r5, #156]
	add	r1, r7, #896
	mov	r2, #32
	add	r0, r4, #192
	bl	memcpy
	mov	r2, #852
	add	r0, r4, #224
	mov	r1, r7
	bl	memcpy
	add	r0, r4, #12
	movw	r1, #2036
	bl	js_hash
	movw	r3, #1592
	str	r3, [r4, #4]
	ldr	r3, [r5, #148]
	str	r3, [r5, #156]
	str	r0, [r4, #8]
	mov	r0, #0
	bl	flash_enter_slc_mode
	mov	r4, r6
.L1093:
	ldr	r1, [r7, #856]
	mov	r0, #0
	mov	r2, r0
	mul	r1, r1, r4
	bl	FlashEraseBlock
	ldr	r1, [r7, #856]
	mov	r0, #0
	ldr	r2, [r5, #160]
	mov	r3, r0
	mul	r1, r1, r4
	bl	FlashProgPage
	ldr	r1, [r7, #856]
	mov	r0, #0
	ldr	r2, [r5, #160]
	mov	r3, r0
	mul	r1, r1, r4
	add	r1, r1, #1
	bl	FlashProgPage
	ldr	r1, [r7, #856]
	mov	r0, #0
	ldr	r2, [r5, #148]
	mov	r3, r0
	mul	r1, r1, r4
	bl	FlashReadRawPage
	cmn	r0, #1
	beq	.L1091
	ldr	sl, [r5, #156]
	ldr	r3, [sl, #0]
	cmp	r3, r8
	bne	.L1091
	add	r0, sl, #12
	movw	r1, #2036
	bl	js_hash
	ldr	r3, [sl, #8]
	cmp	r3, r0
	bne	.L1091
	add	r3, r4, #1
	str	r3, [r5, #168]
	ldr	r3, [r7, #856]
	add	r6, r6, #1
	cmp	r6, #1
	mul	r3, r3, r4
	str	r3, [r5, #172]
	bhi	.L1092
.L1091:
	add	r4, r4, #1
	cmp	r4, #4
	bne	.L1093
.L1092:
	mov	r0, #0
	bl	flash_exit_slc_mode
	cmp	r6, #0
	mvneq	r0, #0
	movne	r0, #0
	ldmfd	sp!, {r3, r4, r5, r6, r7, r8, sl, pc}
.L1098:
	.align	2
.L1097:
	.word	.LANCHOR2
	.word	.LANCHOR0
	.word	1312902724
	.word	.LANCHOR0+3764
	.word	.LANCHOR0+3588
	.word	.LANCHOR1+3116
	.fnend
	.size	FlashSavePhyInfo, .-FlashSavePhyInfo
	.align	2
	.global	FlashReadIdbDataRaw
	.type	FlashReadIdbDataRaw, %function
FlashReadIdbDataRaw:
	.fnstart
	@ args = 0, pretend = 0, frame = 16
	@ frame_needed = 0, uses_anonymous_args = 0
	stmfd	sp!, {r4, r5, r6, r7, r8, r9, sl, fp, lr}
	.save {r4, r5, r6, r7, r8, r9, sl, fp, lr}
	.pad #20
	sub	sp, sp, #20
	mov	r2, #4
	mov	sl, r0
	ldr	r1, .L1110
	add	r0, sp, #12
	bl	memcpy
	ldr	r3, .L1110+4
	ldrb	r2, [r3, #3840]	@ zero_extendqisi2
	ldr	r3, [r3, #3776]
	cmp	r3, #0
	str	r2, [sp, #4]
	beq	.L1100
	mov	r0, #0
	bl	flash_enter_slc_mode
.L1100:
	ldr	r7, .L1110+4
	mov	r0, sl
	mov	r1, #0
	mov	r2, #2048
	bl	ftl_memset
	mvn	r8, #0
	mov	r4, #2
	ldr	r9, .L1110+8
	mov	fp, r7
	b	.L1101
.L1108:
	mov	r6, #0
.L1103:
	add	r3, sp, #12
	ldr	r5, .L1110+8
	ldrb	r0, [r3, r6]	@ zero_extendqisi2
	bl	FlashBchSel
	ldr	r1, [r7, #856]
	mov	r0, #0
	ldr	r2, [r9, #160]
	mov	r3, r0
	mul	r1, r1, r4
	bl	FlashReadRawPage
	cmn	r0, #1
	bne	.L1102
	add	r6, r6, #1
	cmp	r6, #4
	bne	.L1103
	b	.L1104
.L1102:
	ldr	r3, [r5, #160]
	ldr	r2, [r3, #0]
	ldr	r3, .L1110+12
	cmp	r2, r3
	bne	.L1104
	add	r3, sp, #16
	ldr	r0, .L1110+16
	add	r6, r3, r6
	ldrb	r1, [r6, #-4]	@ zero_extendqisi2
	bl	printk
	mov	r0, sl
	ldr	r1, [r5, #160]
	mov	r2, #2048
	bl	memcpy
	ldr	r3, [r5, #160]
	ldr	r3, [r3, #512]
	strb	r3, [fp, #853]
	ldr	r3, [r5, #168]
	cmp	r3, r4
	bls	.L1107
	str	r4, [r5, #168]
	bl	FlashSavePhyInfo
	mov	r8, #0
.L1104:
	add	r4, r4, #1
.L1101:
	ldrb	r3, [r7, #853]	@ zero_extendqisi2
	cmp	r4, r3
	bcc	.L1108
	b	.L1105
.L1107:
	mov	r8, #0
.L1105:
	ldr	r0, [sp, #4]
	bl	FlashBchSel
	ldr	r3, .L1110+4
	ldr	r3, [r3, #3776]
	cmp	r3, #0
	beq	.L1106
	mov	r0, #0
	bl	flash_exit_slc_mode
.L1106:
	mov	r0, r8
	add	sp, sp, #20
	ldmfd	sp!, {r4, r5, r6, r7, r8, r9, sl, fp, pc}
.L1111:
	.align	2
.L1110:
	.word	.LANCHOR3+11
	.word	.LANCHOR0
	.word	.LANCHOR2
	.word	-52655045
	.word	.LC92
	.fnend
	.size	FlashReadIdbDataRaw, .-FlashReadIdbDataRaw
	.align	2
	.global	FlashLoadPhyInfo
	.type	FlashLoadPhyInfo, %function
FlashLoadPhyInfo:
	.fnstart
	@ args = 0, pretend = 0, frame = 8
	@ frame_needed = 0, uses_anonymous_args = 0
	stmfd	sp!, {r0, r1, r2, r4, r5, r6, r7, r8, r9, sl, fp, lr}
	.save {r0, r1, r2, r4, r5, r6, r7, r8, r9, sl, fp, lr}
	mov	r2, #4
	ldr	r1, .L1123
	add	r0, sp, #4
	bl	memcpy
	ldr	r4, .L1123+4
	ldr	r3, .L1123+8
	mov	r5, #0
	mov	r0, r5
	mov	r8, #4
	str	r5, [r4, #172]
	mvn	r6, #0
	ldr	r9, [r3, #856]
	ldr	r3, [r4, #160]
	ldr	fp, .L1123+12
	str	r3, [r4, #156]
	bl	flash_enter_slc_mode
	b	.L1113
.L1115:
	add	r3, sp, #4
	ldrb	r0, [r3, r7]	@ zero_extendqisi2
	bl	FlashBchSel
	mov	r0, #0
	mov	r1, r5
	ldr	r2, [r4, #160]
	mov	r3, r0
	bl	FlashReadRawPage
	cmn	r0, #1
	bne	.L1114
	mov	r0, #0
	mov	r1, sl
	ldr	r2, [r4, #160]
	mov	r3, r0
	bl	FlashReadRawPage
	cmn	r0, #1
	bne	.L1114
	add	r7, r7, #1
	cmp	r7, #4
	beq	.L1116
	b	.L1115
.L1114:
	ldr	r7, [r4, #156]
	ldr	r3, [r7, #0]
	cmp	r3, fp
	bne	.L1116
	cmp	r6, #0
	bne	.L1117
	ldr	r3, .L1123+8
	mov	r0, r5
	ldr	r1, [r3, #856]
	bl	__aeabi_uidiv
	ldr	r3, .L1123+4
	add	r0, r0, #1
	str	r0, [r3, #168]
	mov	r0, r6
	b	.L1122
.L1117:
	add	r0, r7, #12
	movw	r1, #2036
	bl	js_hash
	ldr	r3, [r7, #8]
	cmp	r3, r0
	bne	.L1116
	ldr	r6, .L1123+8
	add	r1, r7, #160
	mov	r2, #32
	ldr	r0, .L1123+16
	bl	memcpy
	add	r1, r7, #192
	add	r0, r6, #896
	mov	r2, #32
	bl	memcpy
	add	r1, r7, #224
	mov	r0, r6
	mov	r2, #852
	bl	memcpy
	ldr	r2, .L1123+20
	movw	r3, #3126
	ldrh	r0, [r2, r3]
	bl	FlashBlockAlignInit
	ldr	r7, [r4, #156]
	ldr	r1, [r6, #856]
	mov	r0, r5
	str	r5, [r4, #172]
	ldr	r3, [r7, #1076]
	strb	r3, [r6, #3780]
	mov	r6, #0
	bl	__aeabi_uidiv
	add	r0, r0, #1
	str	r0, [r4, #168]
	cmp	r0, #1
	movls	r3, #2
	strls	r3, [r4, #168]
	ldrh	r3, [r7, #14]
	strb	r3, [r4, #176]
.L1116:
	subs	r8, r8, #1
	add	r5, r5, r9
	beq	.L1120
.L1113:
	add	sl, r5, #1
	mov	r7, #0
	b	.L1115
.L1120:
	mov	r0, r8
.L1122:
	bl	flash_exit_slc_mode
	mov	r0, r6
	ldmfd	sp!, {r1, r2, r3, r4, r5, r6, r7, r8, r9, sl, fp, pc}
.L1124:
	.align	2
.L1123:
	.word	.LANCHOR3+11
	.word	.LANCHOR2
	.word	.LANCHOR0
	.word	1312902724
	.word	.LANCHOR1+3116
	.word	.LANCHOR1
	.fnend
	.size	FlashLoadPhyInfo, .-FlashLoadPhyInfo
	.align	2
	.global	FlashDdrTunningRead
	.type	FlashDdrTunningRead, %function
FlashDdrTunningRead:
	.fnstart
	@ args = 4, pretend = 0, frame = 16
	@ frame_needed = 0, uses_anonymous_args = 0
	stmfd	sp!, {r4, r5, r6, r7, r8, r9, sl, fp, lr}
	.save {r4, r5, r6, r7, r8, r9, sl, fp, lr}
	mov	sl, r3
	ldr	r4, .L1146
	.pad #20
	sub	sp, sp, #20
	mov	fp, r0
	mov	r9, r2
	str	r1, [sp, #0]
	ldr	r3, [r4, #3008]
	ldr	r7, [r4, #3788]
	ldr	r3, [r3, #304]
	cmp	r7, #7
	movhi	r7, #12
	movls	r7, #6
	str	r3, [sp, #12]
	ldr	r3, [sp, #56]
	cmp	r3, #0
	moveq	r8, #1024
	beq	.L1127
	mov	r0, #1
	bl	FlashSetInterfaceMode
	mov	r0, #1
	bl	NandcSetMode
	mov	r0, fp
	bl	FlashReset
	ldr	r1, [sp, #0]
	mov	r2, r9
	mov	r3, sl
	mov	r0, fp
	bl	FlashReadRawPage
	mov	r8, r0
	ldrb	r0, [r4, #3772]	@ zero_extendqisi2
	bl	FlashSetInterfaceMode
	ldrb	r0, [r4, #3772]	@ zero_extendqisi2
	bl	NandcSetMode
	cmn	r8, #1
	beq	.L1128
	ldr	r0, .L1146+4
	mov	r2, r8
	ldr	r1, [sp, #0]
	bl	printk
	cmp	r8, #9
	bhi	.L1129
	add	r4, r4, fp, asl #3
	ldr	r3, [r4, #864]
	ldr	r2, [r3, #3840]
	ldr	r2, [r3, #0]
	orr	r2, r2, #131072
	str	r2, [r3, #0]
.L1129:
	ldr	r3, .L1146+8
	ldr	r2, [r3, #180]
	add	r2, r2, #1
	str	r2, [r3, #180]
	cmp	r2, #2048
	movcs	sl, #0
	strcs	sl, [r3, #180]
	movcs	r9, sl
	bcc	.L1128
.L1127:
	mov	r4, #0
	str	fp, [sp, #4]
	mov	r5, r4
	mvn	r6, #0
	mov	fp, r4
	str	r4, [sp, #8]
.L1134:
	uxtb	r0, r7
	bl	NandcSetDdrPara
	mov	r3, sl
	ldr	r0, [sp, #4]
	mov	r2, r9
	ldr	r1, [sp, #0]
	bl	FlashReadRawPage
	add	r3, r8, #1
	cmp	r0, r3
	bhi	.L1130
	cmp	r0, #2
	bhi	.L1140
	add	r5, r5, #1
	cmp	r5, #9
	bls	.L1140
	mov	ip, fp
	rsb	r4, r5, r7
	ldr	fp, [sp, #4]
	mov	r8, r0
	mov	r6, #0
	b	.L1132
.L1130:
	cmp	fp, r5
	bcs	.L1141
	cmp	r5, #7
	rsb	r3, r5, r4
	str	r3, [sp, #8]
	bhi	.L1145
	mov	fp, r5
	b	.L1141
.L1140:
	mov	r6, #0
	mov	r4, r7
	mov	r8, r0
	mov	sl, r6
	mov	r9, r6
	b	.L1131
.L1141:
	mov	r5, #0
.L1131:
	add	r7, r7, #2
	cmp	r7, #69
	bls	.L1134
	mov	ip, fp
	ldr	fp, [sp, #4]
.L1132:
	cmp	ip, r5
	bcc	.L1135
	b	.L1133
.L1145:
	ldr	fp, [sp, #4]
.L1133:
	ldr	r4, [sp, #8]
.L1135:
	cmp	r4, #0
	beq	.L1136
	ldr	r0, .L1146+12
	mov	r1, r4
	bl	printk
	uxtb	r0, r4
	bl	NandcSetDdrPara
.L1136:
	cmn	r6, #1
	bne	.L1128
	ldr	r0, .L1146+16
	mov	r1, fp
	ldr	r2, [sp, #0]
	bl	printk
	ldr	r3, [sp, #56]
	cmp	r3, #0
	moveq	r8, r6
	beq	.L1128
	ldr	r3, [sp, #12]
	ubfx	r0, r3, #8, #8
	bl	NandcSetDdrPara
.L1128:
	mov	r0, r8
	add	sp, sp, #20
	ldmfd	sp!, {r4, r5, r6, r7, r8, r9, sl, fp, pc}
.L1147:
	.align	2
.L1146:
	.word	.LANCHOR0
	.word	.LC93
	.word	.LANCHOR2
	.word	.LC94
	.word	.LC95
	.fnend
	.size	FlashDdrTunningRead, .-FlashDdrTunningRead
	.align	2
	.global	FlashDdrParaScan
	.type	FlashDdrParaScan, %function
FlashDdrParaScan:
	.fnstart
	@ args = 0, pretend = 0, frame = 0
	@ frame_needed = 0, uses_anonymous_args = 0
	stmfd	sp!, {r0, r1, r4, r5, r6, r7, r8, lr}
	.save {r0, r1, r4, r5, r6, r7, r8, lr}
	mov	r7, r0
	ldr	r5, .L1152
	mov	r4, #0
	mov	r6, r1
	ldrb	r0, [r5, #3772]	@ zero_extendqisi2
	bl	FlashSetInterfaceMode
	ldrb	r0, [r5, #3772]	@ zero_extendqisi2
	bl	NandcSetMode
	mov	r1, r6
	mov	r2, r4
	mov	r3, r4
	mov	r0, r7
	str	r4, [sp, #0]
	bl	FlashDdrTunningRead
	mov	r1, r6
	mov	r2, r4
	mov	r3, r4
	mov	r8, r0
	mov	r0, r7
	bl	FlashReadRawPage
	cmn	r0, #1
	beq	.L1149
	cmn	r8, #1
	bne	.L1150
.L1149:
	ldrb	r3, [r5, #3772]	@ zero_extendqisi2
	tst	r3, #1
	beq	.L1150
	mov	r0, #1
	bl	FlashSetInterfaceMode
	mov	r0, #1
	bl	NandcSetMode
	ldr	r3, .L1152
	mov	r2, #0
	strb	r2, [r3, #3780]
	b	.L1151
.L1150:
	mov	r3, #1
	strb	r3, [r5, #3780]
.L1151:
	mov	r0, #0
	ldmfd	sp!, {r2, r3, r4, r5, r6, r7, r8, pc}
.L1153:
	.align	2
.L1152:
	.word	.LANCHOR0
	.fnend
	.size	FlashDdrParaScan, .-FlashDdrParaScan
	.align	2
	.global	FlashReadPage
	.type	FlashReadPage, %function
FlashReadPage:
	.fnstart
	@ args = 0, pretend = 0, frame = 0
	@ frame_needed = 0, uses_anonymous_args = 0
	stmfd	sp!, {r0, r1, r4, r5, r6, r7, r8, r9, sl, lr}
	.save {r0, r1, r4, r5, r6, r7, r8, r9, sl, lr}
	mov	r5, r0
	mov	r6, r1
	mov	r8, r2
	mov	sl, r3
	bl	FlashReadRawPage
	cmn	r0, #1
	mov	r4, r0
	bne	.L1155
	ldr	r7, .L1160
	ldrb	r9, [r7, #860]	@ zero_extendqisi2
	cmp	r9, #0
	beq	.L1156
	mov	r3, #0
	mov	r0, r5
	strb	r3, [r7, #860]
	mov	r1, r6
	mov	r2, r8
	mov	r3, sl
	bl	FlashReadRawPage
	strb	r9, [r7, #860]
	cmn	r0, #1
	movne	r4, r0
	bne	.L1155
.L1156:
	ldr	r7, .L1160
	ldrb	r3, [r7, #3780]	@ zero_extendqisi2
	cmp	r3, #0
	beq	.L1155
	ldr	r3, [r7, #3008]
	mov	r0, r5
	mov	r1, r6
	mov	r2, r8
	ldr	r9, [r3, #304]
	mov	r3, #1
	str	r3, [sp, #0]
	mov	r3, sl
	bl	FlashDdrTunningRead
	cmn	r0, #1
	mov	r4, r0
	beq	.L1157
	ldrb	r3, [r7, #3840]	@ zero_extendqisi2
	cmp	r0, r3, lsr #1
	bls	.L1155
.L1157:
	ubfx	r0, r9, #8, #8
	bl	NandcSetDdrPara
.L1155:
	ldr	r7, .L1160+4
	ldr	ip, [r7, #184]
	adds	r3, ip, #0
	movne	r3, #1
	cmn	r4, #1
	movne	r3, #0
	cmp	r3, #0
	beq	.L1158
	mov	r1, r6
	mov	r2, r8
	mov	r3, sl
	mov	r0, r5
	blx	ip
	mov	r2, r5
	mov	r3, r6
	mov	r4, r0
	ldr	r0, .L1160+8
	mov	r1, r4
	bl	printk
	cmn	r4, #1
	bne	.L1158
	ldr	r3, .L1160
	ldrb	r3, [r3, #3072]	@ zero_extendqisi2
	cmp	r3, #0
	beq	.L1158
	mov	r0, r5
	bl	flash_enter_slc_mode
	ldr	ip, [r7, #184]
	mov	r0, r5
	mov	r1, r6
	mov	r2, r8
	mov	r3, sl
	blx	ip
	mov	r4, r0
	mov	r0, r5
	bl	flash_exit_slc_mode
.L1158:
	mov	r0, r4
	ldmfd	sp!, {r2, r3, r4, r5, r6, r7, r8, r9, sl, pc}
.L1161:
	.align	2
.L1160:
	.word	.LANCHOR0
	.word	.LANCHOR2
	.word	.LC96
	.fnend
	.size	FlashReadPage, .-FlashReadPage
	.align	2
	.global	FlashReadSlc2KPages
	.type	FlashReadSlc2KPages, %function
FlashReadSlc2KPages:
	.fnstart
	@ args = 0, pretend = 0, frame = 24
	@ frame_needed = 0, uses_anonymous_args = 0
	ldr	r3, .L1187
	stmfd	sp!, {r4, r5, r6, r7, r8, r9, sl, fp, lr}
	.save {r4, r5, r6, r7, r8, r9, sl, fp, lr}
	.pad #36
	sub	sp, sp, #36
	mov	r9, r1
	ldrb	fp, [r3, #3125]	@ zero_extendqisi2
	str	r2, [sp, #20]
	mov	r4, r0
	mov	sl, #0
	b	.L1163
.L1180:
	rsb	r3, sl, r9
	ldr	r1, [sp, #20]
	add	r2, sp, #28
	mov	r0, r4
	uxtb	r3, r3
	str	r3, [sp, #0]
	add	r3, sp, #24
	bl	LogAddr2PhyAddr
	ldr	r2, .L1187+4
	ldr	r3, [sp, #24]
	ldrb	r1, [r2, #3762]	@ zero_extendqisi2
	cmp	r3, r1
	mvncs	r3, #0
	strcs	r3, [r4, #0]
	bcs	.L1165
	add	r3, r2, r3
	mov	r7, #0
	ldrb	r5, [r3, #3764]	@ zero_extendqisi2
	mov	r0, r5
	bl	NandcWaitFlashReady
	mov	r0, r5
	bl	NandcFlashCs
.L1166:
	ldr	r1, [sp, #28]
	mov	r0, r5
	bl	FlashReadCmd
	mov	r0, r5
	bl	NandcWaitFlashReady
	ldr	r3, [r4, #12]
	mov	r1, #0
	mov	r0, r5
	mov	r2, fp
	str	r3, [sp, #0]
	ldr	r3, [r4, #8]
	bl	NandcXferData
	ldr	r1, .L1187+8
	ldrb	r3, [r1, #188]	@ zero_extendqisi2
	cmp	r3, #0
	mov	r6, r0
	beq	.L1167
	mov	r0, r5
	bl	flash_read_ecc
	cmp	r0, #5
	movhi	r6, #256
.L1167:
	cmp	r7, #9
	cmnls	r6, #1
	movne	r3, #0
	moveq	r3, #1
	addeq	r7, r7, #1
	beq	.L1166
.L1168:
	cmp	r7, #0
	ldr	r8, .L1187+4
	mov	r7, r3
	movne	r6, #256
.L1170:
	ldr	r3, [sp, #28]
	mov	r0, r5
	ldr	r1, [r8, #856]
	add	r1, r1, r3
	bl	FlashReadCmd
	mov	r0, r5
	bl	NandcWaitFlashReady
	ldr	r3, [r4, #8]
	ldr	r2, [r4, #12]
	mov	r1, #0
	cmp	r3, #0
	mov	r0, r5
	addne	r3, r3, #2048
	cmp	r2, #0
	addne	r2, r2, #8
	str	r2, [sp, #0]
	mov	r2, fp
	bl	NandcXferData
	ldr	r1, .L1187+8
	ldrb	r2, [r1, #188]	@ zero_extendqisi2
	cmp	r2, #0
	mov	r3, r0
	beq	.L1173
	mov	r0, r5
	str	r3, [sp, #12]
	bl	flash_read_ecc
	ldr	r3, [sp, #12]
	cmp	r0, #5
	movhi	r3, #256
.L1173:
	cmp	r7, #9
	cmnls	r3, #1
	movne	r2, #0
	moveq	r2, #1
	addeq	r7, r7, #1
	beq	.L1170
.L1174:
	cmp	r7, #0
	mov	r0, r5
	str	r2, [sp, #16]
	movne	r3, #256
	str	r3, [sp, #12]
	bl	NandcFlashDeCs
	ldr	r3, [sp, #12]
	cmp	r3, r6
	movcs	r6, r3
	ldr	r3, .L1187+4
	adds	r1, r6, #1
	ldrb	r3, [r3, #3840]	@ zero_extendqisi2
	movne	r1, #1
	add	r3, r3, r3, asl #1
	cmp	r6, r3, lsr #2
	movls	r3, #0
	andhi	r3, r1, #1
	cmp	r3, #0
	ldr	r3, [r4, #12]
	movne	r6, #256
	str	r6, [r4, #0]
	ldr	r2, [sp, #16]
	cmp	r6, #256
	cmnne	r6, #1
	strne	r2, [r4, #0]
	cmp	r3, #0
	beq	.L1178
	ldr	r2, [r3, #12]
	cmn	r2, #1
	bne	.L1178
	ldr	r2, [r3, #8]
	cmn	r2, #1
	bne	.L1178
	ldr	r3, [r3, #0]
	cmn	r3, #1
	strne	r2, [r4, #0]
.L1178:
	ldr	r3, [r4, #0]
	cmn	r3, #1
	bne	.L1165
	ldr	r2, .L1187+4
	ldr	r1, [r4, #4]
	ldr	r0, .L1187+12
	ldrb	r2, [r2, #3840]	@ zero_extendqisi2
	bl	printk
	ldr	r1, [r4, #8]
	cmp	r1, #0
	beq	.L1179
	ldr	r0, .L1187+16
	mov	r2, #4
	mov	r3, #8
	bl	rknand_print_hex
.L1179:
	ldr	r1, [r4, #12]
	cmp	r1, #0
	beq	.L1165
	mov	r2, #4
	ldr	r0, .L1187+20
	mov	r3, r2
	bl	rknand_print_hex
.L1165:
	add	sl, sl, #1
	add	r4, r4, #36
.L1163:
	cmp	sl, r9
	bne	.L1180
	mov	r0, #0
	add	sp, sp, #36
	ldmfd	sp!, {r4, r5, r6, r7, r8, r9, sl, fp, pc}
.L1188:
	.align	2
.L1187:
	.word	.LANCHOR1
	.word	.LANCHOR0
	.word	.LANCHOR2
	.word	.LC97
	.word	.LC98
	.word	.LC99
	.fnend
	.size	FlashReadSlc2KPages, .-FlashReadSlc2KPages
	.align	2
	.global	FlashReadPages
	.type	FlashReadPages, %function
FlashReadPages:
	.fnstart
	@ args = 0, pretend = 0, frame = 40
	@ frame_needed = 0, uses_anonymous_args = 0
	ldr	r3, .L1231
	stmfd	sp!, {r4, r5, r6, r7, r8, r9, sl, fp, lr}
	.save {r4, r5, r6, r7, r8, r9, sl, fp, lr}
	.pad #52
	sub	sp, sp, #52
	ldrb	r3, [r3, #3125]	@ zero_extendqisi2
	mov	r9, r0
	str	r1, [sp, #28]
	str	r2, [sp, #32]
	str	r3, [sp, #24]
	ldr	r3, .L1231+4
	ldrb	r8, [r3, #852]	@ zero_extendqisi2
	ldrb	ip, [r3, #860]	@ zero_extendqisi2
	cmp	r8, #0
	str	ip, [sp, #36]
	moveq	sl, r8
	beq	.L1190
	bl	FlashReadSlc2KPages
	b	.L1191
.L1218:
	mov	r3, #36
	ldr	ip, [sp, #28]
	mul	r3, r3, sl
	add	r2, sp, #44
	ldr	r1, [sp, #32]
	ldr	fp, .L1231+4
	add	r6, r9, r3
	str	r3, [sp, #16]
	rsb	r3, sl, ip
	ldr	r5, [r6, #4]
	mov	r0, r6
	uxtb	r3, r3
	str	r3, [sp, #0]
	add	r3, sp, #40
	bl	LogAddr2PhyAddr
	ldr	r3, [sp, #40]
	ldrb	r2, [fp, #3762]	@ zero_extendqisi2
	cmp	r3, r2
	ldrcs	ip, [sp, #16]
	mvncs	r3, #0
	mov	r7, r0
	strcs	r3, [r9, ip]
	bcs	.L1193
	add	r3, fp, r3
	ldrb	r4, [r3, #3764]	@ zero_extendqisi2
	ldr	r3, .L1231+8
	mov	r0, r4
	ldrb	r3, [r3, #189]	@ zero_extendqisi2
	cmp	r3, #0
	moveq	r7, #0
	bl	NandcWaitFlashReady
	ldr	r3, [fp, #3624]
	ldrb	r2, [r3, #19]	@ zero_extendqisi2
	sub	r3, r2, #1
	uxtb	r3, r3
	cmp	r3, #7
	bhi	.L1195
	sub	r2, r2, #7
	add	r1, fp, r4
	add	fp, fp, r4
	uxtb	r2, r2
	ldrb	r3, [r1, #12]	@ zero_extendqisi2
	cmp	r2, #1
	ldr	r2, .L1231+4
	ldrlsb	r3, [r1, #20]	@ zero_extendqisi2
	ldrb	r1, [fp, #3756]	@ zero_extendqisi2
	cmp	r1, r3
	beq	.L1195
	ldrb	r1, [r2, #1]	@ zero_extendqisi2
	mov	r0, r4
	add	r2, r2, #4
	bl	HynixSetRRPara
.L1195:
	mov	r0, r4
	mov	r5, r5, lsr #31
	bl	NandcFlashCs
	ldr	ip, [sp, #32]
	mov	r0, r4
	cmp	ip, #1
	orreq	r5, r5, #1
	str	r5, [sp, #20]
	cmp	r5, #0
	beq	.L1197
	ldr	r3, .L1231+4
	ldrb	r3, [r3, #3072]	@ zero_extendqisi2
	cmp	r3, #0
	beq	.L1197
	bl	flash_enter_slc_mode
	b	.L1198
.L1197:
	bl	flash_exit_slc_mode
.L1198:
	ldr	fp, .L1231+4
.L1230:
	ldr	r1, [sp, #44]
	cmn	r1, #1
	cmpeq	r4, #255
	moveq	r3, #0
	movne	r3, #1
	moveq	r7, r3
	beq	.L1200
	cmp	r7, #0
	beq	.L1201
	ldr	r2, [fp, #856]
	mov	r0, r4
	add	r2, r1, r2
	bl	FlashReadDpCmd
	b	.L1202
.L1201:
	mov	r0, r4
	bl	FlashReadCmd
.L1202:
	mov	r0, r4
	bl	NandcWaitFlashReady
	cmp	r7, #0
	beq	.L1200
	mov	r0, r4
	ldr	r1, [sp, #44]
	bl	FlashReadDpDataOutCmd
.L1200:
	ldr	r3, [r6, #12]
	mov	r0, r4
	ldr	r2, [sp, #24]
	mov	r1, #0
	str	r3, [sp, #0]
	ldr	r3, [r6, #8]
	bl	NandcXferData
	ldrb	r2, [fp, #860]	@ zero_extendqisi2
	adds	r2, r2, #0
	movne	r2, #1
	cmn	r0, #1
	movne	r2, #0
	cmp	r2, #0
	movne	r2, #0
	movne	r7, #0
	strneb	r2, [fp, #860]
	bne	.L1230
.L1203:
	cmp	r7, #0
	mov	r5, r0
	beq	.L1204
	ldr	r3, .L1231+4
	mov	r0, r4
	ldr	r1, [r3, #856]
	ldr	r3, [sp, #44]
	str	r2, [sp, #12]
	add	r1, r1, r3
	bl	FlashReadDpDataOutCmd
	add	r3, sl, #1
	mov	r1, #36
	ldr	r2, [sp, #12]
	mla	r3, r1, r3, r9
	mov	r0, r4
	ldr	r1, [r3, #12]
	str	r1, [sp, #0]
	mov	r1, r2
	ldr	r3, [r3, #8]
	ldr	r2, [sp, #24]
	bl	NandcXferData
	cmn	r0, #1
	mov	r8, r0
	moveq	r7, #0
.L1204:
	mov	r0, r4
	ldr	fp, .L1231+4
	bl	NandcFlashDeCs
	ldr	ip, [sp, #36]
	cmn	r5, #1
	strb	ip, [fp, #860]
	bne	.L1208
	ldrb	r3, [fp, #3780]	@ zero_extendqisi2
	cmp	r3, #0
	beq	.L1206
	ldr	r3, [fp, #3008]
	mov	r0, r4
	ldr	r1, [sp, #44]
	ldr	r7, [r3, #304]
	mov	r3, #1
	str	r3, [sp, #0]
	ldr	r2, [r6, #8]
	ldr	r3, [r6, #12]
	bl	FlashDdrTunningRead
	cmn	r0, #1
	mov	r5, r0
	beq	.L1207
	ldrb	r3, [fp, #3840]	@ zero_extendqisi2
	cmp	r0, r3, lsr #1
	bls	.L1224
.L1207:
	ubfx	r0, r7, #8, #8
	bl	NandcSetDdrPara
	cmn	r5, #1
	bne	.L1224
.L1206:
	ldr	r3, .L1231+8
	mov	r0, r4
	ldr	r1, [sp, #44]
	ldr	r2, [r6, #8]
	ldr	r7, [r3, #184]
	ldr	r3, [r6, #12]
	cmp	r7, #0
	beq	.L1209
	blx	r7
	cmn	r0, #1
	mov	r5, r0
	bne	.L1226
	ldr	r2, .L1231+4
	ldr	r3, [r2, #3624]
	ldrb	r3, [r3, #19]	@ zero_extendqisi2
	sub	r3, r3, #1
	uxtb	r3, r3
	cmp	r3, #7
	bhi	.L1211
	ldrb	r1, [r2, #1]	@ zero_extendqisi2
	mov	r0, r4
	add	r2, r2, #4
	mov	r3, #0
	bl	HynixSetRRPara
.L1211:
	ldr	r1, [sp, #44]
	mov	r0, r4
	ldr	r2, [r6, #8]
	ldr	r3, [r6, #12]
	bl	FlashReadRawPage
	ldr	r7, .L1231+4
	ldr	r1, [r6, #4]
	ldrb	r2, [r7, #3840]	@ zero_extendqisi2
	mov	r5, r0
	ldr	r0, .L1231+12
	mov	r3, r5
	bl	printk
	cmn	r5, #1
	bne	.L1226
	ldrb	r7, [r7, #3072]	@ zero_extendqisi2
	cmp	r7, #0
	beq	.L1210
	ldr	ip, [sp, #20]
	mov	r0, r4
	cmp	ip, #0
	beq	.L1212
	bl	flash_enter_slc_mode
	b	.L1213
.L1212:
	bl	flash_exit_slc_mode
.L1213:
	ldr	r3, .L1231+8
	mov	r0, r4
	ldr	r1, [sp, #44]
	ldr	r2, [r6, #8]
	ldr	ip, [r3, #184]
	ldr	r3, [r6, #12]
	blx	ip
	mov	r5, r0
	b	.L1226
.L1209:
	bl	FlashReadRawPage
	mov	r5, r0
	b	.L1210
.L1224:
	mov	r7, #0
.L1208:
	ldr	r3, .L1231+4
	ldrb	r3, [r3, #3840]	@ zero_extendqisi2
	add	r3, r3, r3, asl #1
	cmp	r5, r3, lsr #2
	bls	.L1210
	ldr	r3, .L1231+8
	ldr	r3, [r3, #184]
	cmp	r3, #0
	moveq	r5, #256
	b	.L1210
.L1226:
	mov	r7, #0
.L1210:
	ldr	ip, [sp, #16]
	cmp	r5, #256
	cmnne	r5, #1
	movne	r2, #0
	str	r5, [r9, ip]
	strne	r2, [r9, ip]
	ldr	ip, [sp, #16]
	ldr	r3, [r9, ip]
	cmn	r3, #1
	bne	.L1215
	ldr	r2, .L1231+4
	ldr	r1, [r6, #4]
	ldr	r0, .L1231+16
	ldrb	r2, [r2, #3840]	@ zero_extendqisi2
	bl	printk
	ldr	r1, [r6, #12]
	cmp	r1, #0
	beq	.L1215
	mov	r2, #4
	ldr	r0, .L1231+20
	mov	r3, r2
	bl	rknand_print_hex
.L1215:
	cmp	r7, #0
	beq	.L1216
	ldr	r3, .L1231+4
	ldrb	r3, [r3, #3840]	@ zero_extendqisi2
	add	r3, r3, r3, asl #1
	cmp	r8, r3, lsr #2
	bls	.L1217
	ldr	r3, .L1231+8
	ldr	r3, [r3, #184]
	cmp	r3, #0
	moveq	r8, #256
.L1217:
	add	r3, sl, #1
	mov	r2, #36
	cmp	r8, #256
	cmnne	r8, #1
	mul	r3, r2, r3
	movne	r2, #0
	str	r8, [r9, r3]
	strne	r2, [r9, r3]
.L1216:
	ldr	ip, [sp, #20]
	add	sl, sl, r7
	cmp	ip, #0
	beq	.L1193
	ldr	r3, .L1231+4
	ldrb	r3, [r3, #3072]	@ zero_extendqisi2
	cmp	r3, #0
	beq	.L1193
	mov	r0, r4
	bl	flash_exit_slc_mode
.L1193:
	add	sl, sl, #1
.L1190:
	ldr	ip, [sp, #28]
	cmp	sl, ip
	bcc	.L1218
	mov	r0, #0
.L1191:
	add	sp, sp, #52
	ldmfd	sp!, {r4, r5, r6, r7, r8, r9, sl, fp, pc}
.L1232:
	.align	2
.L1231:
	.word	.LANCHOR1
	.word	.LANCHOR0
	.word	.LANCHOR2
	.word	.LC100
	.word	.LC97
	.word	.LC99
	.fnend
	.size	FlashReadPages, .-FlashReadPages
	.align	2
	.global	ftl_scan_all_ppa
	.type	ftl_scan_all_ppa, %function
ftl_scan_all_ppa:
	.fnstart
	@ args = 0, pretend = 0, frame = 0
	@ frame_needed = 0, uses_anonymous_args = 0
	stmfd	sp!, {r4, r5, r6, r7, r8, r9, sl, lr}
	.save {r4, r5, r6, r7, r8, r9, sl, lr}
	movw	r3, #3918
	ldr	r7, .L1238
	movw	r9, #3916
	.pad #24
	sub	sp, sp, #24
	ldr	r0, .L1238+4
	mov	r5, #0
	ldrh	r1, [r7, r9]
	ldrh	r2, [r7, r3]
	bl	printk
	b	.L1234
.L1235:
	add	r3, r6, r8
	str	r3, [r4, #196]
	ldr	r3, [r4, #-948]
	mov	r2, #0
	mov	r1, #1
	ldr	r0, .L1238+8
	str	r2, [r4, #192]
	add	r6, r6, #1
	str	r3, [r4, #200]
	ldr	r3, [r4, #-924]
	str	r3, [r4, #204]
	bl	FlashReadPages
	ldr	r3, [r4, #204]
	ldr	r2, [r4, #200]
	ldr	r0, .L1238+12
	ldr	r1, [r3, #4]
	str	r1, [sp, #0]
	ldr	r1, [r3, #8]
	str	r1, [sp, #4]
	ldr	r1, [r3, #12]
	str	r1, [sp, #8]
	ldr	r1, [r2, #0]
	str	r1, [sp, #12]
	ldr	r2, [r2, #4]
	ldr	r1, [r4, #196]
	str	r2, [sp, #16]
	ldr	r2, [r4, #192]
	ldr	r3, [r3, #0]
	bl	printk
.L1237:
	ldrh	r3, [r7, sl]
	cmp	r6, r3
	bcc	.L1235
	add	r5, r5, #1
.L1234:
	ldrh	r3, [r7, r9]
	cmp	r5, r3
	movcc	r8, r5, asl #10
	movcc	r6, #0
	movwcc	sl, #3918
	ldrcc	r4, .L1238+16
	bcc	.L1237
.L1236:
	ldr	r0, .L1238+20
	ldr	r1, .L1238+24
	add	sp, sp, #24
	ldmfd	sp!, {r4, r5, r6, r7, r8, r9, sl, lr}
	b	printk
.L1239:
	.align	2
.L1238:
	.word	.LANCHOR0
	.word	.LC101
	.word	.LANCHOR2+192
	.word	.LC102
	.word	.LANCHOR2
	.word	.LC103
	.word	.LANCHOR3+15
	.fnend
	.size	ftl_scan_all_ppa, .-ftl_scan_all_ppa
	.align	2
	.global	FtlScanAllBlock
	.type	FtlScanAllBlock, %function
FtlScanAllBlock:
	.fnstart
	@ args = 0, pretend = 0, frame = 56
	@ frame_needed = 0, uses_anonymous_args = 0
	stmfd	sp!, {r4, r5, r6, r7, r8, r9, sl, fp, lr}
	.save {r4, r5, r6, r7, r8, r9, sl, fp, lr}
	.pad #84
	sub	sp, sp, #84
	ldr	r0, .L1250
	mov	r5, #0
	ldr	r1, .L1250+4
	bl	printk
	ldr	r7, .L1250+8
	b	.L1241
.L1249:
	add	r4, sp, #80
	mov	r0, r5
	ldr	r6, .L1250+12
	mov	r9, #36
	strh	r5, [r4, #-48]!	@ movhi
	bl	ftl_get_blk_mode
	mov	r2, r5, asl #1
	ldr	ip, [r6, #-2012]
	mov	r1, r5
	ldrh	r2, [ip, r2]
	mov	r3, r0
	ldr	r0, .L1250+16
	bl	printk
	mov	r0, r4
	bl	make_superblock
	movw	r3, #3852
	ldrh	sl, [r7, r3]
	add	r3, r3, #76
	add	r0, r4, #14
	mov	r4, #0
	ldrh	r3, [r7, r3]
	ldr	r8, [r6, #-960]
	ldr	lr, [r6, #-1164]
	str	r3, [sp, #28]
	movw	r3, #3930
	ldrh	ip, [r7, r3]
	mov	r3, r4
	ldr	r6, [r6, #-1160]
	b	.L1242
.L1244:
	ldrh	r1, [r0, #2]!
	movw	r2, #65535
	cmp	r1, r2
	beq	.L1243
	mla	r2, r9, r4, r8
	ldr	fp, [sp, #28]
	mov	r1, r1, asl #10
	str	r1, [r2, #4]
	mul	r1, fp, r4
	add	fp, r1, #3
	cmp	r1, #0
	movlt	r1, fp
	bic	r1, r1, #3
	add	r1, lr, r1
	str	r1, [r2, #8]
	mul	r1, ip, r4
	add	r4, r4, #1
	uxth	r4, r4
	add	fp, r1, #3
	cmp	r1, #0
	movlt	r1, fp
	bic	r1, r1, #3
	add	r1, r6, r1
	str	r1, [r2, #12]
.L1243:
	add	r3, r3, #1
	uxth	r3, r3
.L1242:
	cmp	r3, sl
	bne	.L1244
	ldr	sl, .L1250+12
	mov	r1, r4
	mov	r2, #0
	mov	r6, #0
	mov	r8, r6
	ldr	r0, [sl, #-960]
	bl	FlashReadPages
	b	.L1245
.L1246:
	ldr	r2, [sl, #-960]
	add	r8, r8, #1
	ldrh	r1, [sp, #32]
	add	r3, r2, r6
	uxth	r8, r8
	ldr	r0, [r3, #12]
	ldr	ip, [r3, #8]
	ldr	lr, [r0, #0]
	str	lr, [sp, #0]
	ldr	lr, [r0, #4]
	str	lr, [sp, #4]
	ldr	lr, [r0, #8]
	str	lr, [sp, #8]
	ldr	r0, [r0, #12]
	str	r0, [sp, #12]
	ldr	r0, [ip, #0]
	str	r0, [sp, #16]
	ldr	r0, [ip, #4]
	str	r0, [sp, #20]
	ldr	r0, .L1250+20
	ldr	r2, [r2, r6]
	add	r6, r6, #36
	ldr	r3, [r3, #4]
	bl	printk
.L1245:
	cmp	r8, r4
	ldr	r9, .L1250+12
	bne	.L1246
	ldr	r0, [r9, #-960]
	mov	r1, r4
	mov	r2, #1
	mov	r6, #0
	bl	FlashReadPages
	mov	r8, r6
	mov	sl, r9
	b	.L1247
.L1248:
	ldr	r2, [sl, #-960]
	add	r8, r8, #1
	ldrh	r1, [sp, #32]
	add	r3, r2, r6
	uxth	r8, r8
	ldr	r0, [r3, #12]
	ldr	ip, [r3, #8]
	ldr	lr, [r0, #0]
	str	lr, [sp, #0]
	ldr	lr, [r0, #4]
	str	lr, [sp, #4]
	ldr	lr, [r0, #8]
	str	lr, [sp, #8]
	ldr	r0, [r0, #12]
	str	r0, [sp, #12]
	ldr	r0, [ip, #0]
	str	r0, [sp, #16]
	ldr	r0, [ip, #4]
	str	r0, [sp, #20]
	ldr	r0, .L1250+24
	ldr	r2, [r2, r6]
	add	r6, r6, #36
	ldr	r3, [r3, #4]
	bl	printk
.L1247:
	cmp	r8, r4
	bne	.L1248
	add	r5, r5, #1
	uxth	r5, r5
.L1241:
	movw	r3, #3862
	ldrh	r3, [r7, r3]
	cmp	r3, r5
	bhi	.L1249
	mov	r0, #0
	add	sp, sp, #84
	ldmfd	sp!, {r4, r5, r6, r7, r8, r9, sl, fp, pc}
.L1251:
	.align	2
.L1250:
	.word	.LC104
	.word	.LANCHOR3+32
	.word	.LANCHOR0
	.word	.LANCHOR2
	.word	.LC105
	.word	.LC106
	.word	.LC107
	.fnend
	.size	FtlScanAllBlock, .-FtlScanAllBlock
	.align	2
	.global	FtlDumpBlockInfo
	.type	FtlDumpBlockInfo, %function
FtlDumpBlockInfo:
	.fnstart
	@ args = 0, pretend = 0, frame = 56
	@ frame_needed = 0, uses_anonymous_args = 0
	stmfd	sp!, {r4, r5, r6, r7, r8, r9, sl, fp, lr}
	.save {r4, r5, r6, r7, r8, r9, sl, fp, lr}
	ubfx	r0, r0, #10, #16
	.pad #84
	sub	sp, sp, #84
	mov	r7, r1
	bl	P2V_block_in_plane
	ldr	r5, .L1263
	ldr	r1, .L1263+4
	movw	r6, #3918
	ldrh	r9, [r5, r6]
	mov	r4, r0
	ldr	r0, .L1263+8
	bl	printk
	ldr	r3, .L1263+12
	mov	r1, r4
	ldr	r0, .L1263+16
	ldr	r2, [r3, #-2012]
	mov	r3, r4, asl #1
	ldrh	r2, [r2, r3]
	bl	printk
	add	r0, sp, #80
	strh	r4, [r0, #-48]!	@ movhi
	bl	make_superblock
	rsbs	r7, r7, #1
	ldrb	r3, [r5, #3072]	@ zero_extendqisi2
	movcc	r7, #0
	cmp	r3, #0
	moveq	r7, #0
	cmp	r7, #0
	beq	.L1253
	mov	r0, r4
	bl	ftl_get_blk_mode
	cmp	r0, #1
	mov	r7, r0
	moveq	r3, #3920
	ldreqh	r9, [r5, r3]
.L1253:
	ldrh	r3, [r5, r6]
	mov	r1, r7
	ldr	r0, .L1263+20
	mov	r2, r9
	bl	printk
	mov	r6, #0
.L1254:
	ldr	r3, .L1263
	movw	r2, #3852
	movw	r1, #3928
	mov	r4, #0
	add	r0, sp, #46
	ldrh	sl, [r3, r2]
	ldr	r2, .L1263+12
	ldrh	lr, [r3, r1]
	ldr	r8, [r2, #-960]
	ldr	r5, [r2, #-1164]
	ldr	ip, [r2, #-1160]
	movw	r2, #3930
	ldrh	r2, [r3, r2]
	mov	r3, r4
	str	r2, [sp, #28]
	b	.L1255
.L1257:
	ldrh	r1, [r0, #2]!
	movw	r2, #65535
	cmp	r1, r2
	beq	.L1256
	mov	fp, #36
	orr	r1, r6, r1, asl #10
	mla	r2, fp, r4, r8
	str	r1, [r2, #4]
	mul	r1, lr, r4
	add	fp, r1, #3
	cmp	r1, #0
	movlt	r1, fp
	ldr	fp, [sp, #28]
	bic	r1, r1, #3
	add	r1, r5, r1
	str	r1, [r2, #8]
	mul	r1, fp, r4
	add	r4, r4, #1
	uxth	r4, r4
	add	fp, r1, #3
	cmp	r1, #0
	movlt	r1, fp
	bic	r1, r1, #3
	add	r1, ip, r1
	str	r1, [r2, #12]
.L1256:
	add	r3, r3, #1
	uxth	r3, r3
.L1255:
	cmp	r3, sl
	bne	.L1257
	ldr	r8, .L1263+12
	mov	r1, r4
	mov	r2, r7
	mov	r5, #0
	mov	sl, r5
	ldr	r0, [r8, #-960]
	bl	FlashReadPages
	b	.L1258
.L1259:
	ldr	r2, [r8, #-960]
	add	sl, sl, #1
	ldrh	r1, [sp, #32]
	add	r3, r2, r5
	uxth	sl, sl
	ldr	r0, [r3, #12]
	ldr	ip, [r3, #8]
	ldr	lr, [r0, #0]
	str	lr, [sp, #0]
	ldr	lr, [r0, #4]
	str	lr, [sp, #4]
	ldr	lr, [r0, #8]
	str	lr, [sp, #8]
	ldr	r0, [r0, #12]
	str	r0, [sp, #12]
	ldr	r0, [ip, #0]
	str	r0, [sp, #16]
	ldr	r0, [ip, #4]
	str	r0, [sp, #20]
	ldr	r0, .L1263+24
	ldr	r2, [r2, r5]
	add	r5, r5, #36
	ldr	r3, [r3, #4]
	bl	printk
.L1258:
	cmp	sl, r4
	bne	.L1259
	add	r6, r6, #1
	uxth	r6, r6
	cmp	r6, r9
	bne	.L1254
.L1260:
	mov	r0, #0
	add	sp, sp, #84
	ldmfd	sp!, {r4, r5, r6, r7, r8, r9, sl, fp, pc}
.L1264:
	.align	2
.L1263:
	.word	.LANCHOR0
	.word	.LANCHOR3+48
	.word	.LC104
	.word	.LANCHOR2
	.word	.LC108
	.word	.LC109
	.word	.LC110
	.fnend
	.size	FtlDumpBlockInfo, .-FtlDumpBlockInfo
	.align	2
	.global	FtlScanSysBlk
	.type	FtlScanSysBlk, %function
FtlScanSysBlk:
	.fnstart
	@ args = 0, pretend = 0, frame = 24
	@ frame_needed = 0, uses_anonymous_args = 0
	stmfd	sp!, {r4, r5, r6, r7, r8, r9, sl, fp, lr}
	.save {r4, r5, r6, r7, r8, r9, sl, fp, lr}
	mov	r6, #0
	ldr	r5, .L1323
	.pad #28
	sub	sp, sp, #28
	ldr	r4, .L1323+4
	mov	r1, r6
	ldr	r3, .L1323+8
	movw	r7, #3940
	ldr	r2, [r5, #3948]
	ldr	r0, [r4, #-1024]
	mov	sl, r4
	strh	r6, [r4, r3]	@ movhi
	movw	r3, #3966
	strh	r6, [r5, r3]	@ movhi
	mov	r2, r2, asl #2
	bl	ftl_memset
	ldr	r2, [r5, #3948]
	mov	r1, r6
	ldr	r0, [r4, #-1028]
	mov	r2, r2, asl #1
	bl	ftl_memset
	ldrh	r2, [r5, r7]
	mov	r1, r6
	ldr	r0, [r4, #-896]
	mov	r2, r2, asl #2
	bl	ftl_memset
	ldrh	r2, [r5, r7]
	mov	r1, r6
	ldr	r0, [r5, #3968]
	mov	r2, r2, asl #1
	bl	ftl_memset
	ldr	r0, .L1323+12
	mov	r1, #255
	mov	r2, #16
	bl	ftl_memset
	movw	r3, #3860
	ldrh	r3, [r5, r3]
	str	r3, [sp, #8]
	b	.L1266
.L1268:
	add	r3, r6, r5
	ldr	r1, [sp, #8]
	ldrb	r0, [r3, #3878]	@ zero_extendqisi2
	bl	V2P_block
	str	r0, [sp, #0]
	bl	FtlBbmIsBadBlock
	ldr	r3, [sp, #0]
	cmp	r0, #0
	bne	.L1267
	ldr	r2, [r4, #-960]
	mov	r3, r3, asl #10
	mla	r2, r9, r7, r2
	str	r3, [r2, #4]
	ldr	r3, [r4, #-1164]
	str	r3, [r2, #8]
	ldrh	r3, [r6, r8]
	mul	r3, r3, r7
	add	r7, r7, #1
	uxth	r7, r7
	add	r1, r3, #3
	cmp	r3, #0
	movlt	r3, r1
	ldr	r1, [r4, #-1160]
	bic	r3, r3, #3
	add	r3, r1, r3
	str	r3, [r2, #12]
.L1267:
	add	r5, r5, #1
	uxth	r5, r5
	b	.L1301
.L1314:
	mov	r7, #0
	movw	fp, #3852
	mov	r5, r7
	mov	r9, #36
	movw	r8, #3930
.L1301:
	ldrh	r3, [r6, fp]
	cmp	r3, r5
	bhi	.L1268
	cmp	r7, #0
	beq	.L1269
	ldr	r0, [r4, #-960]
	mov	r1, r7
	mov	r2, #1
	mov	fp, r7
	bl	FlashReadPages
	mov	r8, #0
	str	r8, [sp, #12]
.L1300:
	ldr	r3, [r4, #-960]
	add	r2, r3, r8
	ldr	r3, [r3, r8]
	ldr	r6, [r2, #4]
	cmn	r3, #1
	ldr	r5, [r2, #12]
	ubfx	r6, r6, #10, #16
	bne	.L1270
	mov	r7, #16
.L1272:
	ldr	r0, [r4, #-960]
	mov	r1, #1
	mov	r2, r1
	add	r0, r0, r8
	ldr	r3, [r0, #4]
	add	r3, r3, #1
	str	r3, [r0, #4]
	bl	FlashReadPages
	ldrh	r3, [r5, #0]
	movw	r1, #65535
	cmp	r3, r1
	ldreq	r3, [sl, #-960]
	mvneq	r2, #0
	streq	r2, [r3, r8]
	beq	.L1270
.L1271:
	ldr	r3, [r4, #-960]
	ldr	r3, [r3, r8]
	cmn	r3, #1
	bne	.L1270
	sub	r7, r7, #1
	uxth	r7, r7
	cmp	r7, #0
	bne	.L1272
.L1270:
	ldr	r3, [r4, #-960]
	ldr	r3, [r3, r8]
	cmn	r3, #1
	beq	.L1273
	ldr	r2, [r4, #-1800]
	ldr	r3, [r5, #4]
	cmn	r2, #1
	beq	.L1274
	cmp	r2, r3
	bhi	.L1275
.L1274:
	cmn	r3, #1
	addne	r3, r3, #1
	strne	r3, [sl, #-1800]
.L1275:
	ldrh	r3, [r5, #0]
	movw	r2, #61604
	cmp	r3, r2
	beq	.L1278
	bhi	.L1281
	movw	r2, #61574
	cmp	r3, r2
	bne	.L1276
	b	.L1321
.L1281:
	movw	r2, #61634
	cmp	r3, r2
	beq	.L1279
	movw	r2, #65535
	cmp	r3, r2
	bne	.L1276
	b	.L1322
.L1279:
	ldr	r3, .L1323
	mov	r9, r6
	ldr	r1, .L1323+8
	ldr	ip, [r4, #-1024]
	ldr	r0, [r3, #3948]
	ldrh	r1, [r4, r1]
	uxth	r2, r0
	sub	r3, r2, #1
	rsb	r2, r1, r2
	sub	r2, r2, #1
	uxth	r3, r3
	sxth	r2, r2
	str	r2, [sp, #4]
	b	.L1282
.L1288:
	mov	r6, r2, asl #2
	ldr	r7, [r5, #4]
	str	r6, [sp, #16]
	ldr	r6, [ip, r2, asl #2]
	cmp	r7, r6
	bls	.L1283
	ldr	ip, [ip, #0]
	mov	r6, r9
	cmp	ip, #0
	bne	.L1284
	cmp	r1, r0
	addne	r1, r1, #1
	ldrne	r0, .L1323+8
	strneh	r1, [r4, r0]	@ movhi
.L1284:
	mov	r0, #0
	sxth	r9, r3
	str	r3, [sp, #4]
	b	.L1285
.L1286:
	ldr	r7, [r4, #-1024]
	add	ip, r1, #1
	add	r0, r0, #1
	ldr	r3, [r7, ip, asl #2]
	mov	ip, ip, asl #1
	uxth	r0, r0
	str	r3, [r7, r1, asl #2]
	mov	r1, r1, asl #1
	ldr	r7, [r4, #-1028]
	ldrh	ip, [r7, ip]
	strh	ip, [r7, r1]	@ movhi
.L1285:
	sxth	r1, r0
	cmp	r1, r9
	bne	.L1286
	ldr	r1, [sl, #-1024]
	mov	r2, r2, asl #1
	ldr	r0, [r5, #4]
	ldr	ip, [sp, #16]
	ldr	r3, [sp, #4]
	str	r0, [r1, ip]
	ldr	r1, [sl, #-1028]
	strh	r6, [r1, r2]	@ movhi
	b	.L1287
.L1283:
	sub	r3, r3, #1
	uxth	r3, r3
.L1282:
	ldr	r6, [sp, #4]
	sxth	r2, r3
	cmp	r2, r6
	bgt	.L1288
	mov	r6, r9
.L1287:
	sxth	r3, r3
	cmp	r3, #0
	blt	.L1276
	ldr	r2, .L1323+8
	ldr	r0, .L1323
	ldrh	r1, [r4, r2]
	ldr	r0, [r0, #3948]
	rsb	r0, r1, r0
	sub	r0, r0, #1
	sxth	r0, r0
	cmp	r3, r0
	bgt	.L1276
	add	r1, r1, #1
	strh	r1, [r4, r2]	@ movhi
	ldr	r2, [r4, #-1024]
	ldr	r1, [r5, #4]
	str	r1, [r2, r3, asl #2]
	mov	r3, r3, asl #1
	ldr	r2, [r4, #-1028]
	b	.L1318
.L1321:
	ldr	r1, .L1323
	movw	r3, #3940
	movw	ip, #3966
	mov	r9, r6
	ldrh	r0, [r1, r3]
	ldrh	r1, [r1, ip]
	sub	r2, r0, #1
	ldr	ip, [r4, #-896]
	uxth	r3, r2
	rsb	r2, r1, r2
	str	r2, [sp, #4]
	b	.L1289
.L1295:
	mov	r6, r2, asl #2
	ldr	r7, [r5, #4]
	str	r6, [sp, #16]
	ldr	r6, [ip, r2, asl #2]
	cmp	r7, r6
	bls	.L1290
	ldr	ip, [ip, #0]
	mov	r6, r9
	cmp	ip, #0
	bne	.L1291
	cmp	r1, r0
	addne	r1, r1, #1
	ldrne	ip, .L1323
	movwne	r0, #3966
	strneh	r1, [ip, r0]	@ movhi
.L1291:
	sxth	ip, r3
	mov	r0, #0
	str	ip, [sp, #20]
	ldr	r9, .L1323
	str	r3, [sp, #4]
	b	.L1292
.L1293:
	ldr	r7, [r4, #-896]
	add	ip, r1, #1
	add	r0, r0, #1
	ldr	r3, [r7, ip, asl #2]
	mov	ip, ip, asl #1
	uxth	r0, r0
	str	r3, [r7, r1, asl #2]
	mov	r1, r1, asl #1
	ldr	r7, [r9, #3968]
	ldrh	ip, [r7, ip]
	strh	ip, [r7, r1]	@ movhi
.L1292:
	ldr	ip, [sp, #20]
	sxth	r1, r0
	cmp	r1, ip
	bne	.L1293
	ldr	r1, [sl, #-896]
	mov	r2, r2, asl #1
	ldr	r0, [r5, #4]
	ldr	ip, [sp, #16]
	ldr	r3, [sp, #4]
	str	r0, [r1, ip]
	ldr	r1, .L1323
	ldr	r1, [r1, #3968]
	strh	r6, [r1, r2]	@ movhi
	b	.L1294
.L1290:
	sub	r3, r3, #1
	uxth	r3, r3
.L1289:
	ldr	r6, [sp, #4]
	sxth	r2, r3
	cmp	r2, r6
	bgt	.L1295
	mov	r6, r9
.L1294:
	sxth	r3, r3
	cmp	r3, #0
	blt	.L1276
	ldr	r2, .L1323
	movw	ip, #3940
	movw	r1, #3966
	ldrh	ip, [r2, ip]
	ldrh	r0, [r2, r1]
	sub	ip, ip, #1
	rsb	ip, r0, ip
	sxth	ip, ip
	cmp	r3, ip
	bgt	.L1276
	add	r0, r0, #1
	strh	r0, [r2, r1]	@ movhi
	ldr	r0, [r5, #4]
	ldr	r1, [r4, #-896]
	str	r0, [r1, r3, asl #2]
	mov	r3, r3, asl #1
	ldr	r2, [r2, #3968]
.L1318:
	strh	r6, [r2, r3]	@ movhi
	b	.L1276
.L1278:
	ldr	r3, .L1323+16
	movw	ip, #65535
	ldrh	r2, [r4, r3]
	cmp	r2, ip
	streqh	r6, [r4, r3]	@ movhi
	beq	.L1319
	ldr	r3, .L1323+20
	movw	r1, #65535
	ldrh	r0, [r4, r3]
	cmp	r0, r1
	beq	.L1297
	mov	r1, #1
	bl	FtlFreeSysBlkQueueIn
.L1297:
	ldr	r3, [r5, #4]
	ldr	r2, [sl, #-1760]
	cmp	r2, r3
	ldr	r3, .L1323+20
	strcsh	r6, [r4, r3]	@ movhi
	bcs	.L1276
	ldr	r2, .L1323+16
	ldrh	r1, [r4, r2]
	strh	r6, [r4, r2]	@ movhi
	strh	r1, [r4, r3]	@ movhi
.L1319:
	ldr	r3, [r5, #4]
	str	r3, [r4, #-1760]
	b	.L1276
.L1322:
	mov	r0, r6
	b	.L1320
.L1273:
	ldr	r3, .L1323
	mov	r0, r6
	ldrb	r1, [r3, #3072]	@ zero_extendqisi2
	cmp	r1, #0
	beq	.L1299
.L1320:
	mov	r1, #0
.L1299:
	bl	FtlFreeSysBlkQueueIn
.L1276:
	ldr	r6, [sp, #12]
	add	r8, r8, #36
	add	r3, r6, #1
	uxth	r3, r3
	str	r3, [sp, #12]
	cmp	r3, fp
	bne	.L1300
.L1269:
	ldr	ip, [sp, #8]
	add	r3, ip, #1
	uxth	r3, r3
	str	r3, [sp, #8]
.L1266:
	ldr	r6, .L1323
	movw	r3, #3862
	ldr	ip, [sp, #8]
	ldrh	r3, [r6, r3]
	cmp	r3, ip
	bhi	.L1314
	ldr	r1, .L1323+4
	ldr	r2, [r1, #-1028]
	ldrh	r3, [r2, #0]
	cmp	r3, #0
	bne	.L1302
	ldr	r0, .L1323+8
	ldrh	r1, [r1, r0]
	cmp	r1, #0
	ldrne	r0, [r6, #3948]
	bne	.L1303
	b	.L1302
.L1307:
	mov	r1, r1, asl #1
	ldrh	r1, [r2, r1]
	cmp	r1, #0
	beq	.L1304
	ldr	r7, .L1323
	sxth	r6, r3
	ldr	r1, .L1323+4
	mov	r5, #0
	b	.L1305
.L1306:
	ldr	ip, [r1, #-1028]
	mov	r0, r2, asl #1
	rsb	r4, r6, r2
	add	r3, r3, #1
	ldrh	sl, [ip, r0]
	mov	r8, r4, asl #1
	uxth	r3, r3
	strh	sl, [ip, r8]	@ movhi
	ldr	ip, [r1, #-1024]
	ldr	r2, [ip, r2, asl #2]
	str	r2, [ip, r4, asl #2]
	ldr	r2, [r1, #-1028]
	strh	r5, [r2, r0]	@ movhi
.L1305:
	ldr	r0, [r7, #3948]
	sxth	r2, r3
	cmp	r2, r0
	bcc	.L1306
	b	.L1302
.L1304:
	add	r3, r3, #1
	uxth	r3, r3
.L1303:
	sxth	r1, r3
	cmp	r1, r0
	bcc	.L1307
.L1302:
	ldr	r2, .L1323
	ldr	r1, [r2, #3968]
	ldrh	r3, [r1, #0]
	cmp	r3, #0
	bne	.L1308
	movw	r0, #3966
	ldrh	r0, [r2, r0]
	cmp	r0, #0
	movwne	r0, #3940
	ldrneh	r2, [r2, r0]
	bne	.L1309
	b	.L1308
.L1313:
	mov	ip, r0, asl #1
	ldrh	ip, [r1, ip]
	cmp	ip, #0
	beq	.L1310
	ldr	r1, .L1323
	movw	r8, #3940
	ldr	r7, .L1323+4
	mov	r6, #0
	b	.L1311
.L1312:
	ldr	r4, [r1, #3968]
	mov	ip, r2, asl #1
	rsb	r5, r0, r2
	add	r3, r3, #1
	ldrh	r9, [r4, ip]
	mov	sl, r5, asl #1
	uxth	r3, r3
	strh	r9, [r4, sl]	@ movhi
	ldr	r4, [r7, #-896]
	ldr	r2, [r4, r2, asl #2]
	str	r2, [r4, r5, asl #2]
	ldr	r2, [r1, #3968]
	strh	r6, [r2, ip]	@ movhi
.L1311:
	ldrh	ip, [r1, r8]
	sxth	r2, r3
	cmp	r2, ip
	blt	.L1312
	b	.L1308
.L1310:
	add	r3, r3, #1
	uxth	r3, r3
.L1309:
	sxth	r0, r3
	cmp	r0, r2
	blt	.L1313
.L1308:
	mov	r0, #0
	add	sp, sp, #28
	ldmfd	sp!, {r4, r5, r6, r7, r8, r9, sl, fp, pc}
.L1324:
	.align	2
.L1323:
	.word	.LANCHOR0
	.word	.LANCHOR2
	.word	-1032
	.word	.LANCHOR2-1768
	.word	-1768
	.word	-1764
	.fnend
	.size	FtlScanSysBlk, .-FtlScanSysBlk
	.align	2
	.global	FtlGetLastWrittenPage
	.type	FtlGetLastWrittenPage, %function
FtlGetLastWrittenPage:
	.fnstart
	@ args = 0, pretend = 0, frame = 104
	@ frame_needed = 0, uses_anonymous_args = 0
	cmp	r1, #1
	ldr	r3, .L1336
	stmfd	sp!, {r4, r5, r6, r7, r8, sl, lr}
	.save {r4, r5, r6, r7, r8, sl, lr}
	moveq	r2, #3920
	movwne	r2, #3918
	.pad #108
	sub	sp, sp, #108
	ldrh	r4, [r3, r2]
	add	r7, sp, #4
	mov	r5, r1
	add	r3, sp, #40
	sub	r4, r4, #1
	str	r3, [sp, #16]
	mov	sl, r0, asl #10
	mov	r1, #1
	uxth	r4, r4
	mov	r0, r7
	mov	r2, r5
	mov	r8, #0
	sxth	r3, r4
	str	r8, [sp, #12]
	orr	r3, r3, sl
	str	r3, [sp, #8]
	bl	FlashReadPages
	ldr	r3, [sp, #40]
	cmn	r3, #1
	bne	.L1329
	b	.L1334
.L1332:
	add	r6, r6, r3
	mov	r0, r7
	mov	r1, #1
	mov	r2, r5
	add	r6, r6, r6, lsr #31
	ubfx	r6, r6, #1, #16
	sxth	r3, r6
	orr	r3, r3, sl
	str	r3, [sp, #8]
	bl	FlashReadPages
	ldr	r3, [sp, #40]
	cmn	r3, #1
	bne	.L1330
	ldr	r3, [sp, #44]
	cmn	r3, #1
	bne	.L1330
	ldr	r3, [sp, #4]
	cmn	r3, #1
	subne	r4, r6, #1
	uxthne	r4, r4
	bne	.L1334
.L1330:
	add	r6, r6, #1
	uxth	r8, r6
.L1334:
	sxth	r6, r8
	sxth	r3, r4
	cmp	r6, r3
	ble	.L1332
.L1329:
	sxth	r0, r4
	add	sp, sp, #108
	ldmfd	sp!, {r4, r5, r6, r7, r8, sl, pc}
.L1337:
	.align	2
.L1336:
	.word	.LANCHOR0
	.fnend
	.size	FtlGetLastWrittenPage, .-FtlGetLastWrittenPage
	.align	2
	.global	FtlLoadSysInfo
	.type	FtlLoadSysInfo, %function
FtlLoadSysInfo:
	.fnstart
	@ args = 0, pretend = 0, frame = 0
	@ frame_needed = 0, uses_anonymous_args = 0
	stmfd	sp!, {r3, r4, r5, r6, r7, r8, sl, lr}
	.save {r3, r4, r5, r6, r7, r8, sl, lr}
	mov	r1, #0
	ldr	r4, .L1358
	ldr	r6, .L1358+4
	ldr	r7, .L1358+8
	ldr	r3, [r4, #-948]
	ldr	r0, [r4, #-2012]
	str	r3, [r4, #200]
	ldr	r3, [r4, #-924]
	str	r3, [r4, #204]
	movw	r3, #3860
	ldrh	r2, [r6, r3]
	mov	r2, r2, asl #1
	bl	ftl_memset
	ldrh	r0, [r4, r7]
	movw	r3, #65535
	cmp	r0, r3
	beq	.L1355
	mov	r1, #1
	bl	FtlGetLastWrittenPage
	ldr	r3, .L1358+12
	ldrh	r7, [r4, r7]
	uxth	r5, r0
	add	r2, r5, #1
	strh	r2, [r4, r3]	@ movhi
	b	.L1357
.L1346:
	sxth	r8, r7
	mov	r1, #1
	ldr	r0, .L1358+16
	mov	r2, r1
	orr	r3, r3, r8, asl #10
	str	r3, [r4, #196]
	ldr	r3, [r4, #-948]
	str	r3, [r4, #200]
	bl	FlashReadPages
	ldrb	r3, [r6, #852]	@ zero_extendqisi2
	cmp	r3, #0
	beq	.L1341
	ldr	r3, [r4, #204]
	ldr	sl, [r3, #12]
	cmp	sl, #0
	beq	.L1341
	movw	r3, #3928
	ldr	r0, [r4, #200]
	ldrh	r1, [r6, r3]
	bl	js_hash
	cmp	sl, r0
	beq	.L1341
	cmp	r5, #0
	bne	.L1342
	ldr	r3, .L1358+20
	ldrh	r3, [r4, r3]
	cmp	r8, r3
	uxthne	r7, r3
	movne	r3, #3920
	ldrneh	r5, [r6, r3]
	bne	.L1344
.L1342:
	mvn	r3, #0
	str	r3, [r4, #192]
.L1341:
	ldr	r3, [r4, #192]
	cmn	r3, #1
	beq	.L1344
	ldr	r3, [r4, #-948]
	ldr	r2, [r3, #0]
	ldr	r3, .L1358+24
	cmp	r2, r3
	bne	.L1344
	ldr	r3, [r4, #-924]
	ldrh	r2, [r3, #0]
	movw	r3, #61604
	cmp	r2, r3
	beq	.L1345
.L1344:
	sub	r5, r5, #1
	uxth	r5, r5
.L1357:
	sxth	r3, r5
	cmp	r3, #0
	bge	.L1346
.L1345:
	ldr	r4, .L1358
	mov	r2, #48
	ldr	r5, .L1358+4
	movw	r6, #3860
	ldr	r0, .L1358+28
	ldr	r7, [r4, #200]
	mov	r1, r7
	bl	memcpy
	ldrh	r2, [r5, r6]
	add	r1, r7, #48
	ldr	r0, [r4, #-2012]
	mov	r2, r2, asl #1
	bl	memcpy
	ldrh	r1, [r5, r6]
	ldr	r3, [r4, #200]
	ldr	r0, [r4, #-1836]
	mov	r2, r1, lsr #3
	add	r1, r1, #24
	add	r2, r2, #4
	mov	r1, r1, lsr #1
	add	r1, r3, r1, asl #2
	bl	memcpy
	movw	r3, #3964
	ldrh	r3, [r5, r3]
	cmp	r3, #0
	beq	.L1347
	ldrh	r3, [r5, r6]
	movw	r2, #3956
	ldrh	r2, [r5, r2]
	ldr	r0, [r4, #-888]
	mov	r1, r3, lsr #3
	add	r1, r1, r3, asl #1
	ldr	r3, [r4, #200]
	add	r1, r1, #52
	mov	r2, r2, asl #2
	ubfx	r1, r1, #2, #14
	add	r1, r3, r1, asl #2
	bl	memcpy
.L1347:
	ldr	r4, .L1358
	ldr	r3, .L1358+24
	ldr	r2, [r4, #-2068]
	cmp	r2, r3
	bne	.L1355
	ldr	r3, .L1358+32
	movw	r1, #3874
	ldrb	r0, [r4, #-2058]	@ zero_extendqisi2
	ldrh	r2, [r4, r3]
	ldr	r3, .L1358+36
	strh	r2, [r4, r3]	@ movhi
	ldr	r3, .L1358+4
	ldrh	r1, [r3, r1]
	cmp	r0, r1
	bne	.L1355
	movw	r1, #3918
	movw	r0, #3924
	ldrh	r1, [r3, r1]
	movw	r5, #65535
	ldrh	r0, [r3, r0]
	str	r2, [r4, #228]
	mul	r1, r2, r1
	str	r1, [r3, #3980]
	mul	r1, r0, r1
	ldr	r0, [r3, #3864]
	str	r1, [r3, #3960]
	movw	r1, #3990
	ldrh	r1, [r3, r1]
	rsb	r0, r1, r0
	rsb	r0, r2, r0
	movw	r2, #3852
	ldrh	r1, [r3, r2]
	bl	__aeabi_uidiv
	ldr	r3, .L1358+40
	ldr	r1, .L1358+44
	strh	r0, [r4, r3]	@ movhi
	ldr	r3, .L1358+48
	ldrh	r2, [r4, r3]
	add	r3, r3, #62
	strh	r2, [r4, r3]	@ movhi
	sub	r3, r3, #60
	ldrh	r3, [r4, r3]
	mov	r0, r3, lsr #6
	and	r3, r3, #63
	strb	r3, [r4, #-1986]
	ldrb	r3, [r4, #-2057]	@ zero_extendqisi2
	strh	r0, [r4, r1]	@ movhi
	mvn	r1, #0
	ldr	r0, .L1358+52
	strb	r3, [r4, #-1984]
	ldr	r3, .L1358+56
	strh	r1, [r4, r3]	@ movhi
	mov	r3, #0
	ldr	r1, .L1358+60
	strh	r3, [r4, r0]	@ movhi
	strb	r3, [r4, #-1746]
	ldrh	r0, [r4, r1]
	add	r1, r1, #106
	strb	r3, [r4, #-1744]
	str	r3, [r4, #-1812]
	strh	r0, [r4, r1]	@ movhi
	ldr	r1, .L1358+64
	ldr	r0, .L1358+68
	ldrh	r1, [r4, r1]
	mov	ip, r1, lsr #6
	and	r1, r1, #63
	strb	r1, [r4, #-1938]
	ldrb	r1, [r4, #-2056]	@ zero_extendqisi2
	strh	ip, [r4, r0]	@ movhi
	strb	r1, [r4, #-1936]
	ldr	r1, .L1358+72
	ldrh	r0, [r4, r1]
	add	r1, r1, #150
	strh	r0, [r4, r1]	@ movhi
	sub	r1, r1, #148
	ldr	r0, .L1358+76
	ldrh	r1, [r4, r1]
	mov	ip, r1, lsr #6
	and	r1, r1, #63
	strb	r1, [r4, #-1890]
	ldrb	r1, [r4, #-2055]	@ zero_extendqisi2
	strh	ip, [r4, r0]	@ movhi
	strb	r1, [r4, #-1888]
	str	r3, [r4, #-1824]
	ldr	r1, [r4, #-2036]
	str	r3, [r4, #-1832]
	str	r3, [r4, #-1816]
	str	r3, [r4, #-1788]
	str	r3, [r4, #-1780]
	str	r3, [r4, #-1820]
	ldr	r3, [r4, #-2028]
	str	r1, [r4, #-1792]
	ldr	r1, [r4, #-1800]
	cmp	r3, r1
	strhi	r3, [r4, #-1800]
	ldr	r4, .L1358
	ldr	r3, [r4, #-2032]
	ldr	r1, [r4, #-1796]
	cmp	r3, r1
	strhi	r3, [r4, #-1796]
	cmp	r2, r5
	beq	.L1350
	ldr	r0, .L1358+80
	bl	make_superblock
.L1350:
	ldr	r3, .L1358+84
	ldrh	r3, [r4, r3]
	cmp	r3, r5
	beq	.L1351
	ldr	r0, .L1358+88
	bl	make_superblock
.L1351:
	ldr	r5, .L1358
	movw	r4, #65535
	ldr	r3, .L1358+92
	ldrh	r3, [r5, r3]
	cmp	r3, r4
	beq	.L1352
	ldr	r0, .L1358+96
	bl	make_superblock
.L1352:
	ldr	r3, .L1358+56
	ldrh	r3, [r5, r3]
	cmp	r3, r4
	beq	.L1356
	ldr	r0, .L1358+100
	bl	make_superblock
	mov	r0, #0
	ldmfd	sp!, {r3, r4, r5, r6, r7, r8, sl, pc}
.L1355:
	mvn	r0, #0
	ldmfd	sp!, {r3, r4, r5, r6, r7, r8, sl, pc}
.L1356:
	mov	r0, #0
	ldmfd	sp!, {r3, r4, r5, r6, r7, r8, sl, pc}
.L1359:
	.align	2
.L1358:
	.word	.LANCHOR2
	.word	.LANCHOR0
	.word	-1768
	.word	-1766
	.word	.LANCHOR2+192
	.word	-1764
	.word	1179929683
	.word	.LANCHOR2-2068
	.word	-2060
	.word	-1762
	.word	-1772
	.word	-1990
	.word	-2054
	.word	-1750
	.word	-1752
	.word	-2050
	.word	-2048
	.word	-1942
	.word	-2046
	.word	-1894
	.word	.LANCHOR2-1992
	.word	-1944
	.word	.LANCHOR2-1944
	.word	-1896
	.word	.LANCHOR2-1896
	.word	.LANCHOR2-1752
	.fnend
	.size	FtlLoadSysInfo, .-FtlLoadSysInfo
	.align	2
	.global	FtlLoadBbt
	.type	FtlLoadBbt, %function
FtlLoadBbt:
	.fnstart
	@ args = 0, pretend = 0, frame = 0
	@ frame_needed = 0, uses_anonymous_args = 0
	stmfd	sp!, {r4, r5, r6, r7, r8, lr}
	.save {r4, r5, r6, r7, r8, lr}
	ldr	r6, .L1376
	ldr	r8, .L1376+4
	ldr	r3, [r6, #-948]
	mov	r7, r6
	ldr	r4, [r6, #-924]
	str	r3, [r6, #200]
	str	r4, [r6, #204]
	bl	FtlBbtMemInit
	movw	r3, #3916
	ldrh	r5, [r8, r3]
	sub	r5, r5, #1
	uxth	r5, r5
	b	.L1361
.L1365:
	mov	r1, #1
	mov	r3, r5, asl #10
	ldr	r0, .L1376+8
	mov	r2, r1
	str	r3, [r6, #196]
	bl	FlashReadPages
	ldr	r3, [r6, #192]
	cmn	r3, #1
	bne	.L1362
	ldr	r3, [r6, #196]
	mov	r1, #1
	ldr	r0, .L1376+8
	mov	r2, r1
	add	r3, r3, #1
	str	r3, [r6, #196]
	bl	FlashReadPages
.L1362:
	ldr	r3, [r7, #192]
	cmn	r3, #1
	beq	.L1363
	ldrh	r2, [r4, #0]
	movw	r3, #61649
	cmp	r2, r3
	bne	.L1363
	ldr	r3, .L1376+4
	mov	r2, #3984
	strh	r5, [r3, r2]	@ movhi
	ldr	r2, [r4, #4]
	str	r2, [r3, #3992]
	movw	r2, #3988
	ldrh	r1, [r4, #8]
	strh	r1, [r3, r2]	@ movhi
	b	.L1364
.L1363:
	sub	r5, r5, #1
	uxth	r5, r5
.L1361:
	movw	r3, #3916
	ldrh	r3, [r8, r3]
	sub	r3, r3, #48
	cmp	r5, r3
	bgt	.L1365
.L1364:
	ldr	r5, .L1376+4
	mov	r8, #3984
	movw	r3, #65535
	ldrh	r2, [r5, r8]
	cmp	r2, r3
	beq	.L1375
	movw	r6, #3988
	ldrh	r2, [r5, r6]
	cmp	r2, r3
	beq	.L1367
	ldr	r7, .L1376
	mov	r1, #1
	mov	r2, r2, asl #10
	add	r0, r7, #192
	str	r2, [r7, #196]
	mov	r2, r1
	bl	FlashReadPages
	ldr	r3, [r7, #192]
	cmn	r3, #1
	beq	.L1367
	ldrh	r2, [r4, #0]
	movw	r3, #61649
	cmp	r2, r3
	bne	.L1367
	ldr	r3, [r4, #4]
	ldr	r2, [r5, #3992]
	cmp	r3, r2
	strhi	r3, [r5, #3992]
	ldrhih	r2, [r5, r6]
	ldrhih	r3, [r4, #8]
	strhih	r2, [r5, r8]	@ movhi
	strhih	r3, [r5, r6]	@ movhi
.L1367:
	ldr	r8, .L1376+4
	mov	r3, #3984
	mov	r1, #1
	mov	r6, #0
	ldr	r5, .L1376
	ldrh	r0, [r8, r3]
	bl	FtlGetLastWrittenPage
	movw	r3, #3986
	add	r2, r0, #1
	mov	r7, r0
	strh	r2, [r8, r3]	@ movhi
	b	.L1368
.L1371:
	mov	r2, #3984
	mov	r1, #1
	ldrh	r2, [r8, r2]
	ldr	r0, .L1376+8
	orr	r3, r3, r2, asl #10
	str	r3, [r5, #196]
	ldr	r3, [r5, #-948]
	mov	r2, r1
	str	r3, [r5, #200]
	bl	FlashReadPages
	ldr	r3, [r5, #192]
	cmn	r3, #1
	beq	.L1369
	ldrh	r2, [r4, #0]
	movw	r3, #61649
	cmp	r2, r3
	beq	.L1370
.L1369:
	sub	r6, r6, #1
	uxth	r6, r6
.L1368:
	add	r3, r6, r7
	sxth	r3, r3
	cmp	r3, #0
	bge	.L1371
.L1370:
	ldr	r3, .L1376+4
	movw	r2, #3990
	ldrh	r1, [r4, #10]
	ldrh	r0, [r4, #12]
	strh	r1, [r3, r2]	@ movhi
	movw	r2, #65535
	cmp	r0, r2
	beq	.L1372
	ldr	r2, [r3, #3848]
	cmp	r0, r2
	beq	.L1372
	movw	r1, #3862
	ldrh	r3, [r3, r1]
	mov	r3, r3, lsr #2
	cmp	r2, r3
	bcs	.L1372
	cmp	r0, r3
	bcs	.L1372
	bl	FtlSysBlkNumInit
.L1372:
	ldr	r6, .L1376+12
	mov	r4, #0
	ldr	r8, .L1376+4
	movw	r7, #3874
	ldr	r5, .L1376
	b	.L1373
.L1374:
	ldr	r3, .L1376+16
	ldr	r1, [r5, #200]
	ldr	r0, [r6, #4]!
	ldrh	r2, [r5, r3]
	mov	r2, r2, asl #2
	mla	r1, r4, r2, r1
	bl	memcpy
	add	r4, r4, #1
.L1373:
	ldrh	r3, [r8, r7]
	cmp	r4, r3
	bcc	.L1374
	mov	r0, #0
	ldmfd	sp!, {r4, r5, r6, r7, r8, pc}
.L1375:
	mvn	r0, #0
	ldmfd	sp!, {r4, r5, r6, r7, r8, pc}
.L1377:
	.align	2
.L1376:
	.word	.LANCHOR2
	.word	.LANCHOR0
	.word	.LANCHOR2+192
	.word	.LANCHOR0+4008
	.word	-1016
	.fnend
	.size	FtlLoadBbt, .-FtlLoadBbt
	.align	2
	.global	FtlLoadFactoryBbt
	.type	FtlLoadFactoryBbt, %function
FtlLoadFactoryBbt:
	.fnstart
	@ args = 0, pretend = 0, frame = 0
	@ frame_needed = 0, uses_anonymous_args = 0
	stmfd	sp!, {r3, r4, r5, r6, r7, r8, r9, sl, fp, lr}
	.save {r3, r4, r5, r6, r7, r8, r9, sl, fp, lr}
	mov	r5, #0
	ldr	r3, .L1385
	movw	fp, #3874
	ldr	r7, .L1385+4
	ldr	r6, .L1385+8
	ldr	r2, [r3, #-948]
	ldr	r8, [r3, #-924]
	str	r2, [r3, #200]
	str	r8, [r3, #204]
	b	.L1379
.L1384:
	movw	r9, #3916
	mvn	r3, #0
	ldrh	r4, [r6, r9]
	strh	r3, [r7], #2	@ movhi
	add	r4, r4, r3
	ldr	sl, .L1385
	uxth	r4, r4
	b	.L1380
.L1383:
	mla	r3, r3, r5, r4
	mov	r1, #1
	ldr	r0, .L1385+12
	mov	r2, r1
	mov	r3, r3, asl #10
	str	r3, [sl, #196]
	bl	FlashReadPages
	ldr	r3, [sl, #192]
	cmn	r3, #1
	beq	.L1381
	ldrh	r2, [r8, #0]
	movw	r3, #61664
	cmp	r2, r3
	streqh	r4, [r7, #-2]	@ movhi
	beq	.L1382
.L1381:
	sub	r4, r4, #1
	uxth	r4, r4
.L1380:
	ldrh	r3, [r6, r9]
	sub	r2, r3, #16
	cmp	r4, r2
	bgt	.L1383
.L1382:
	add	r5, r5, #1
.L1379:
	ldrh	r3, [r6, fp]
	cmp	r5, r3
	bcc	.L1384
	mov	r0, #0
	ldmfd	sp!, {r3, r4, r5, r6, r7, r8, r9, sl, fp, pc}
.L1386:
	.align	2
.L1385:
	.word	.LANCHOR2
	.word	.LANCHOR0+3996
	.word	.LANCHOR0
	.word	.LANCHOR2+192
	.fnend
	.size	FtlLoadFactoryBbt, .-FtlLoadFactoryBbt
	.align	2
	.global	FlashProgSlc2KPages
	.type	FlashProgSlc2KPages, %function
FlashProgSlc2KPages:
	.fnstart
	@ args = 0, pretend = 0, frame = 56
	@ frame_needed = 0, uses_anonymous_args = 0
	stmfd	sp!, {r4, r5, r6, r7, r8, r9, sl, fp, lr}
	.save {r4, r5, r6, r7, r8, r9, sl, fp, lr}
	.pad #68
	sub	sp, sp, #68
	mov	sl, r1
	mov	r9, r2
	str	r3, [sp, #12]
	mov	r4, r0
	ldr	r3, .L1406
	mov	r6, r0
	mov	r8, #0
	ldr	r7, .L1406+4
	ldrb	fp, [r3, #3125]	@ zero_extendqisi2
	b	.L1388
.L1395:
	rsb	r3, r8, sl
	add	r2, sp, #20
	mov	r0, r6
	mov	r1, r9
	uxtb	r3, r3
	str	r3, [sp, #0]
	add	r3, sp, #24
	bl	LogAddr2PhyAddr
	ldr	r3, [sp, #24]
	ldrb	r2, [r7, #3762]	@ zero_extendqisi2
	cmp	r3, r2
	mvncs	r3, #0
	strcs	r3, [r6, #0]
	bcs	.L1390
	add	r3, r7, r3
	ldrb	r5, [r3, #3764]	@ zero_extendqisi2
	mov	r0, r5
	bl	NandcWaitFlashReady
	mov	r0, r5
	bl	NandcFlashCs
	mov	r0, r5
	ldr	r1, [sp, #20]
	bl	FlashProgFirstCmd
	ldr	r3, [r6, #12]
	mov	r2, fp
	mov	r1, #1
	mov	r0, r5
	str	r3, [sp, #0]
	ldr	r3, [r6, #8]
	bl	NandcXferData
	ldr	r1, [sp, #20]
	mov	r0, r5
	bl	FlashProgSecondCmd
	mov	r0, r5
	bl	NandcWaitFlashReady
	ldr	r1, [sp, #20]
	mov	r0, r5
	bl	FlashReadStatus
	ldr	r3, [sp, #20]
	ands	r0, r0, #1
	mvnne	r0, #0
	str	r0, [r6, #0]
	ldr	r1, [r7, #856]
	mov	r0, r5
	add	r1, r1, r3
	bl	FlashProgFirstCmd
	ldr	r3, [r6, #8]
	ldr	r2, [r6, #12]
	mov	r1, #1
	cmp	r3, #0
	mov	r0, r5
	addne	r3, r3, #2048
	cmp	r2, #0
	addne	r2, r2, #8
	str	r2, [sp, #0]
	mov	r2, fp
	bl	NandcXferData
	ldr	r3, [sp, #20]
	ldr	r1, [r7, #856]
	mov	r0, r5
	add	r1, r1, r3
	bl	FlashProgSecondCmd
	mov	r0, r5
	bl	NandcWaitFlashReady
	mov	r0, r5
	ldr	r1, [sp, #20]
	bl	FlashReadStatus
	tst	r0, #1
	mov	r0, r5
	mvnne	r3, #0
	strne	r3, [r6, #0]
	bl	NandcFlashDeCs
.L1390:
	add	r8, r8, #1
	add	r6, r6, #36
.L1388:
	cmp	r8, sl
	bne	.L1395
	ldr	r3, [sp, #12]
	cmp	r3, #0
	movne	r6, #0
	ldrne	r5, .L1406+8
	bne	.L1396
	b	.L1397
.L1402:
	ldr	r3, [r4, #0]
	cmn	r3, #1
	bne	.L1398
	ldr	r1, [r4, #4]
	ldr	r0, .L1406+12
	bl	printk
	b	.L1399
.L1398:
	rsb	r3, r6, sl
	mov	r1, r9
	add	r2, sp, #20
	mov	r0, r4
	uxtb	r3, r3
	str	r3, [sp, #0]
	add	r3, sp, #24
	bl	LogAddr2PhyAddr
	ldr	r2, [r5, #232]
	mov	r3, #0
	mov	lr, r4
	add	ip, sp, #28
	str	r3, [r2, #0]
	ldr	r2, [r5, #236]
	str	r3, [r2, #0]
	ldmia	lr!, {r0, r1, r2, r3}
	stmia	ip!, {r0, r1, r2, r3}
	ldmia	lr!, {r0, r1, r2, r3}
	stmia	ip!, {r0, r1, r2, r3}
	add	r0, sp, #28
	ldr	r3, [lr, #0]
	mov	r1, #1
	mov	r2, r9
	str	r3, [ip, #0]
	ldr	r3, [r5, #232]
	str	r3, [sp, #36]
	ldr	r3, [r5, #236]
	str	r3, [sp, #40]
	bl	FlashReadPages
	ldr	r7, [sp, #28]
	cmn	r7, #1
	bne	.L1400
	ldr	r0, .L1406+16
	ldr	r1, [r4, #4]
	bl	printk
	str	r7, [r4, #0]
.L1400:
	ldr	r3, [r4, #12]
	cmp	r3, #0
	beq	.L1401
	ldr	r2, [r3, #0]
	ldr	r3, [r5, #236]
	ldr	r3, [r3, #0]
	cmp	r2, r3
	beq	.L1401
	ldr	r0, .L1406+20
	ldr	r1, [r4, #4]
	bl	printk
	mvn	r3, #0
	str	r3, [r4, #0]
.L1401:
	ldr	r3, [r4, #8]
	cmp	r3, #0
	beq	.L1399
	ldr	r2, [r3, #0]
	ldr	r3, [r5, #232]
	ldr	r3, [r3, #0]
	cmp	r2, r3
	beq	.L1399
	ldr	r0, .L1406+24
	ldr	r1, [r4, #4]
	bl	printk
	mvn	r3, #0
	str	r3, [r4, #0]
.L1399:
	add	r6, r6, #1
	add	r4, r4, #36
.L1396:
	cmp	r6, sl
	bne	.L1402
.L1397:
	mov	r0, #0
	add	sp, sp, #68
	ldmfd	sp!, {r4, r5, r6, r7, r8, r9, sl, fp, pc}
.L1407:
	.align	2
.L1406:
	.word	.LANCHOR1
	.word	.LANCHOR0
	.word	.LANCHOR2
	.word	.LC111
	.word	.LC112
	.word	.LC113
	.word	.LC114
	.fnend
	.size	FlashProgSlc2KPages, .-FlashProgSlc2KPages
	.align	2
	.global	FlashProgPages
	.type	FlashProgPages, %function
FlashProgPages:
	.fnstart
	@ args = 0, pretend = 0, frame = 64
	@ frame_needed = 0, uses_anonymous_args = 0
	stmfd	sp!, {r4, r5, r6, r7, r8, r9, sl, fp, lr}
	.save {r4, r5, r6, r7, r8, r9, sl, fp, lr}
	.pad #76
	sub	sp, sp, #76
	ldr	r5, .L1436
	mov	r9, r0
	str	r1, [sp, #8]
	mov	sl, r2
	str	r3, [sp, #16]
	ldr	ip, [r5, #3624]
	ldrb	r6, [r5, #852]	@ zero_extendqisi2
	ldrb	ip, [ip, #19]	@ zero_extendqisi2
	cmp	r6, #0
	moveq	fp, r5
	str	ip, [sp, #20]
	ldr	ip, .L1436+4
	ldrb	ip, [ip, #3125]	@ zero_extendqisi2
	str	ip, [sp, #12]
	beq	.L1409
	bl	FlashProgSlc2KPages
	b	.L1410
.L1423:
	mov	r4, #36
	ldr	r2, [sp, #8]
	mul	r4, r4, r6
	rsb	r3, r6, r2
	mov	r1, sl
	add	r2, sp, #28
	uxtb	r3, r3
	str	r3, [sp, #0]
	add	r7, r9, r4
	add	r3, sp, #32
	mov	r0, r7
	bl	LogAddr2PhyAddr
	ldrb	r3, [r5, #3762]	@ zero_extendqisi2
	ldr	r2, [sp, #32]
	cmp	r2, r3
	mvncs	r3, #0
	strcs	r3, [r9, r4]
	mov	r8, r0
	bcs	.L1412
	ldrb	r1, [r5, #3841]	@ zero_extendqisi2
	add	r2, fp, r2, asl #4
	cmp	r1, #0
	ldr	r2, [r2, #3636]
	moveq	r8, #0
	cmp	r2, #0
	beq	.L1414
	cmp	r3, #1
	bne	.L1415
	ldr	r0, [r5, #3008]
	bl	NandcIqrWaitFlashReady
.L1415:
	ldrb	r0, [sp, #32]	@ zero_extendqisi2
	bl	FlashWaitCmdDone
.L1414:
	ldr	r2, [sp, #32]
	mov	r1, #0
	cmp	r8, #0
	add	r3, r5, r2, asl #4
	movne	r0, #36
	str	r1, [r3, #3640]
	ldr	r1, [sp, #28]
	str	r7, [r3, #3636]
	str	r1, [r3, #3632]
	addne	r1, r6, #1
	mlane	r1, r0, r1, r9
	strne	r1, [r3, #3640]
	add	r3, fp, r2
	add	r2, fp, r2, asl #4
	ldrb	r4, [r3, #3764]	@ zero_extendqisi2
	ldrb	r3, [fp, #3762]	@ zero_extendqisi2
	cmp	r3, #1
	strb	r4, [r2, #3628]
	mov	r0, r4
	bne	.L1417
	bl	NandcWaitFlashReady
	b	.L1418
.L1417:
	bl	NandcFlashCs
	ldr	r3, [sp, #32]
	mov	r0, r4
	ldr	r1, [sp, #28]
	add	r3, r5, r3, asl #2
	ldr	r2, [r3, #3588]
	adds	r2, r2, #0
	movne	r2, #1
	bl	FlashWaitReadyEN
	mov	r0, r4
	bl	NandcFlashDeCs
.L1418:
	ldr	r2, [sp, #20]
	sub	r3, r2, #1
	cmp	r3, #7
	bhi	.L1419
	add	r3, r5, r4
	ldrb	r3, [r3, #3756]	@ zero_extendqisi2
	cmp	r3, #0
	beq	.L1419
	mov	r0, r4
	ldrb	r1, [r5, #1]	@ zero_extendqisi2
	ldr	r2, .L1436+8
	mov	r3, #0
	bl	HynixSetRRPara
.L1419:
	mov	r0, r4
	bl	NandcFlashCs
	cmp	sl, #1
	mov	r0, r4
	bne	.L1420
	ldrb	r3, [r5, #3072]	@ zero_extendqisi2
	cmp	r3, #0
	beq	.L1420
	bl	flash_enter_slc_mode
	b	.L1421
.L1420:
	bl	flash_exit_slc_mode
.L1421:
	mov	r0, r4
	ldr	r1, [sp, #28]
	bl	FlashProgFirstCmd
	ldr	r3, [r7, #12]
	mov	r0, r4
	mov	r1, #1
	ldr	r2, [sp, #12]
	str	r3, [sp, #0]
	ldr	r3, [r7, #8]
	bl	NandcXferData
	cmp	r8, #0
	beq	.L1422
	mov	r0, r4
	ldr	r1, [sp, #28]
	bl	FlashProgDpFirstCmd
	ldr	r3, [sp, #32]
	ldr	r1, [sp, #28]
	mov	r0, r4
	add	r3, r5, r3, asl #2
	ldr	r2, [r3, #3588]
	adds	r2, r2, #0
	movne	r2, #1
	bl	FlashWaitReadyEN
	ldr	r3, [sp, #28]
	ldr	r1, [r5, #856]
	mov	r0, r4
	add	r1, r1, r3
	bl	FlashProgDpSecondCmd
	add	r3, r6, #1
	mov	r2, #36
	mov	r0, r4
	mla	r3, r2, r3, r9
	mov	r1, #1
	ldr	r2, [r3, #12]
	str	r2, [sp, #0]
	ldr	r2, [sp, #12]
	ldr	r3, [r3, #8]
	bl	NandcXferData
.L1422:
	mov	r0, r4
	ldr	r1, [sp, #28]
	bl	FlashProgSecondCmd
	mov	r0, r4
	bl	NandcFlashDeCs
	add	r6, r6, r8
.L1412:
	add	r6, r6, #1
.L1409:
	ldr	r3, [sp, #8]
	cmp	r6, r3
	bcc	.L1423
	ldr	r5, .L1436
	mov	r4, #0
	ldr	r6, .L1436+12
	ldr	r0, [r5, #3008]
	bl	NandcIqrWaitFlashReady
	b	.L1424
.L1426:
	uxtb	r0, r4
	bl	FlashWaitCmdDone
	cmp	sl, #1
	bne	.L1425
	ldrb	r3, [r5, #3072]	@ zero_extendqisi2
	cmp	r3, #0
	beq	.L1425
	ldrb	r0, [r6, r4, asl #4]	@ zero_extendqisi2
	bl	flash_exit_slc_mode
.L1425:
	add	r4, r4, #1
.L1424:
	ldrb	r3, [r5, #3762]	@ zero_extendqisi2
	cmp	r4, r3
	bcc	.L1426
	ldr	r2, [sp, #16]
	cmp	r2, #0
	ldreq	r0, [sp, #16]
	beq	.L1410
	mov	r5, #0
	ldr	r4, .L1436+16
	ldr	r6, [sp, #8]
	b	.L1427
.L1432:
	ldr	r3, [r9, #0]
	cmn	r3, #1
	bne	.L1428
	ldr	r1, [r9, #4]
	ldr	r0, .L1436+20
	bl	printk
	b	.L1429
.L1428:
	rsb	r3, r5, r6
	mov	r1, sl
	add	r2, sp, #28
	mov	r0, r9
	uxtb	r3, r3
	str	r3, [sp, #0]
	add	r3, sp, #32
	bl	LogAddr2PhyAddr
	ldr	r2, [r4, #232]
	mov	r3, #0
	mov	lr, r9
	add	ip, sp, #36
	str	r3, [r2, #0]
	ldr	r2, [r4, #236]
	str	r3, [r2, #0]
	ldmia	lr!, {r0, r1, r2, r3}
	stmia	ip!, {r0, r1, r2, r3}
	ldmia	lr!, {r0, r1, r2, r3}
	stmia	ip!, {r0, r1, r2, r3}
	add	r0, sp, #36
	ldr	r3, [lr, #0]
	mov	r1, #1
	mov	r2, sl
	str	r3, [ip, #0]
	ldr	r3, [r4, #232]
	str	r3, [sp, #44]
	ldr	r3, [r4, #236]
	str	r3, [sp, #48]
	bl	FlashReadPages
	ldr	r7, [sp, #36]
	cmn	r7, #1
	bne	.L1430
	ldr	r0, .L1436+24
	ldr	r1, [r9, #4]
	bl	printk
	str	r7, [r9, #0]
.L1430:
	ldr	r3, [r9, #12]
	cmp	r3, #0
	beq	.L1431
	ldr	r2, [r3, #0]
	ldr	r3, [r4, #236]
	ldr	r3, [r3, #0]
	cmp	r2, r3
	beq	.L1431
	ldr	r0, .L1436+28
	ldr	r1, [r9, #4]
	bl	printk
	mvn	r3, #0
	str	r3, [r9, #0]
.L1431:
	ldr	r3, [r9, #8]
	cmp	r3, #0
	beq	.L1429
	ldr	r2, [r3, #0]
	ldr	r3, [r4, #232]
	ldr	r3, [r3, #0]
	cmp	r2, r3
	beq	.L1429
	ldr	r0, .L1436+32
	ldr	r1, [r9, #4]
	bl	printk
	mvn	r3, #0
	str	r3, [r9, #0]
.L1429:
	add	r5, r5, #1
	add	r9, r9, #36
.L1427:
	cmp	r5, r6
	bne	.L1432
	mov	r0, #0
.L1410:
	add	sp, sp, #76
	ldmfd	sp!, {r4, r5, r6, r7, r8, r9, sl, fp, pc}
.L1437:
	.align	2
.L1436:
	.word	.LANCHOR0
	.word	.LANCHOR1
	.word	.LANCHOR0+4
	.word	.LANCHOR0+3628
	.word	.LANCHOR2
	.word	.LC111
	.word	.LC112
	.word	.LC113
	.word	.LC114
	.fnend
	.size	FlashProgPages, .-FlashProgPages
	.align	2
	.type	FtlVpcTblFlush.part.16, %function
FtlVpcTblFlush.part.16:
	.fnstart
	@ args = 0, pretend = 0, frame = 0
	@ frame_needed = 0, uses_anonymous_args = 0
	stmfd	sp!, {r3, r4, r5, r6, r7, r8, sl, lr}
	.save {r3, r4, r5, r6, r7, r8, sl, lr}
	mov	r1, #255
	ldr	r4, .L1451
	movw	r7, #3860
	ldr	r6, .L1451+4
	ldr	r3, [r4, #-948]
	ldr	r5, [r4, #-924]
	str	r3, [r4, #200]
	ldr	r3, .L1451+8
	str	r5, [r4, #204]
	ldrh	r3, [r4, r3]
	strh	r3, [r5, #2]	@ movhi
	ldr	r3, .L1451+12
	strh	r3, [r5, #0]	@ movhi
	ldr	r3, [r4, #-1760]
	str	r3, [r5, #4]
	mov	r3, #0
	str	r3, [r5, #8]
	str	r3, [r5, #12]
	ldr	r3, .L1451+16
	str	r3, [r4, #-2068]
	ldr	r3, .L1451+20
	str	r3, [r4, #-2064]
	ldr	r3, .L1451+24
	ldrh	r2, [r4, r3]
	ldr	r3, .L1451+28
	strh	r2, [r4, r3]	@ movhi
	movw	r3, #3874
	ldrh	r3, [r6, r3]
	strb	r3, [r4, #-2058]
	ldr	r3, .L1451+32
	ldrh	r2, [r4, r3]
	sub	r3, r3, #62
	strh	r2, [r4, r3]	@ movhi
	add	r3, r3, #64
	ldrh	r2, [r4, r3]
	ldrb	r3, [r4, #-1986]	@ zero_extendqisi2
	orr	r2, r3, r2, asl #6
	ldr	r3, .L1451+36
	strh	r2, [r4, r3]	@ movhi
	ldrb	r3, [r4, #-1984]	@ zero_extendqisi2
	strb	r3, [r4, #-2057]
	ldr	r3, .L1451+40
	ldrh	r2, [r4, r3]
	sub	r3, r3, #106
	strh	r2, [r4, r3]	@ movhi
	add	r3, r3, #108
	ldrh	r2, [r4, r3]
	ldrb	r3, [r4, #-1938]	@ zero_extendqisi2
	orr	r2, r3, r2, asl #6
	ldr	r3, .L1451+44
	strh	r2, [r4, r3]	@ movhi
	ldrb	r3, [r4, #-1936]	@ zero_extendqisi2
	strb	r3, [r4, #-2056]
	ldr	r3, .L1451+48
	ldrh	r2, [r4, r3]
	sub	r3, r3, #150
	strh	r2, [r4, r3]	@ movhi
	add	r3, r3, #152
	ldr	r0, [r4, #200]
	ldrh	r2, [r4, r3]
	ldrb	r3, [r4, #-1890]	@ zero_extendqisi2
	orr	r2, r3, r2, asl #6
	ldr	r3, .L1451+52
	strh	r2, [r4, r3]	@ movhi
	ldrb	r3, [r4, #-1888]	@ zero_extendqisi2
	strb	r3, [r4, #-2055]
	ldr	r3, [r4, #-1792]
	str	r3, [r4, #-2036]
	ldr	r3, [r4, #-1800]
	str	r3, [r4, #-2028]
	ldr	r3, [r4, #-1796]
	str	r3, [r4, #-2032]
	ldr	r3, .L1451+56
	ldrh	r2, [r4, r3]
	ldr	r3, .L1451+60
	strh	r2, [r4, r3]	@ movhi
	add	r3, r3, #892
	ldrh	r2, [r4, r3]
	ldr	r3, .L1451+64
	strh	r2, [r4, r3]	@ movhi
	movw	r3, #3928
	ldrh	r2, [r6, r3]
	bl	ftl_memset
	ldr	r1, .L1451+68
	mov	r2, #48
	ldr	r0, [r4, #200]
	bl	memcpy
	ldrh	r2, [r6, r7]
	ldr	r0, [r4, #200]
	ldr	r1, [r4, #-2012]
	mov	r2, r2, asl #1
	add	r0, r0, #48
	bl	memcpy
	ldrh	r2, [r6, r7]
	ldr	r3, [r4, #200]
	add	r0, r2, #24
	ldr	r1, [r4, #-1836]
	mov	r2, r2, lsr #3
	mov	r0, r0, lsr #1
	add	r2, r2, #4
	add	r0, r3, r0, asl #2
	bl	memcpy
	movw	r3, #3964
	ldrh	r3, [r6, r3]
	cmp	r3, #0
	beq	.L1439
	ldrh	r3, [r6, r7]
	ldr	r1, [r4, #200]
	mov	r0, r3, lsr #3
	add	r0, r0, r3, asl #1
	movw	r3, #3956
	add	r0, r0, #52
	ldrh	r2, [r6, r3]
	ubfx	r0, r0, #2, #14
	mov	r2, r2, asl #2
	add	r0, r1, r0, asl #2
	ldr	r1, [r4, #-1020]
	bl	memcpy
.L1439:
	mov	r0, #0
	ldr	r4, .L1451
	bl	FtlUpdateVaildLpn
	ldr	sl, .L1451+8
	ldr	r6, .L1451+72
	mov	r7, #0
	movw	r8, #65535
.L1450:
	ldr	r3, [r4, #-948]
	ldrh	r2, [r4, sl]
	ldr	r0, .L1451+4
	str	r3, [r4, #200]
	ldr	r3, [r4, #-924]
	str	r3, [r4, #204]
	ldrh	r3, [r4, r6]
	orr	r1, r3, r2, asl #10
	str	r1, [r4, #196]
	mov	r1, #3920
	ldrh	r1, [r0, r1]
	sub	r1, r1, #1
	cmp	r3, r1
	blt	.L1441
	ldr	r3, .L1451+76
	ldrh	r8, [r4, r3]
	strh	r2, [r4, r3]	@ movhi
	mov	r3, #0
	strh	r3, [r4, r6]	@ movhi
	bl	FtlFreeSysBlkQueueOut
	ldr	r3, [r4, #-1800]
	add	r2, r3, #1
	str	r2, [r4, #-1800]
	str	r3, [r4, #-1760]
	mov	r2, r0, asl #10
	strh	r0, [r4, sl]	@ movhi
	str	r2, [r4, #196]
	str	r3, [r5, #4]
	strh	r0, [r5, #2]	@ movhi
.L1441:
	ldr	r3, .L1451+4
	ldrb	r2, [r3, #852]	@ zero_extendqisi2
	cmp	r2, #0
	beq	.L1442
	movw	r2, #3928
	ldr	r0, [r4, #-948]
	ldrh	r1, [r3, r2]
	bl	js_hash
	str	r0, [r5, #12]
.L1442:
	mov	r1, #1
	ldr	r0, .L1451+80
	mov	r2, r1
	mov	r3, r1
	bl	FlashProgPages
	ldrh	r3, [r4, r6]
	ldr	r2, [r4, #192]
	add	r3, r3, #1
	cmn	r2, #1
	uxth	r3, r3
	strh	r3, [r4, r6]	@ movhi
	bne	.L1443
	cmp	r3, #1
	add	r7, r7, #1
	ldreq	r2, .L1451+4
	moveq	r3, #3920
	uxth	r7, r7
	ldreqh	r3, [r2, r3]
	subeq	r3, r3, #1
	streqh	r3, [r4, r6]	@ movhi
	cmp	r7, #3
	bls	.L1450
	ldr	r3, .L1451
	mov	r2, r7
	ldr	r0, .L1451+84
	ldr	r1, [r3, #196]
	bl	printk
	ldr	r3, .L1451+4
	mov	r2, #1
	str	r2, [r3, #4044]
	ldmfd	sp!, {r3, r4, r5, r6, r7, r8, sl, pc}
.L1443:
	cmp	r3, #1
	beq	.L1450
	cmp	r2, #256
	beq	.L1450
	movw	r3, #65535
	cmp	r8, r3
	ldmeqfd	sp!, {r3, r4, r5, r6, r7, r8, sl, pc}
	mov	r0, r8
	mov	r1, #1
	bl	FtlFreeSysBlkQueueIn
	ldmfd	sp!, {r3, r4, r5, r6, r7, r8, sl, pc}
.L1452:
	.align	2
.L1451:
	.word	.LANCHOR2
	.word	.LANCHOR0
	.word	-1768
	.word	-3932
	.word	1179929683
	.word	1342177366
	.word	-1762
	.word	-2060
	.word	-1992
	.word	-2052
	.word	-1944
	.word	-2048
	.word	-1896
	.word	-2044
	.word	-1134
	.word	-2024
	.word	-2022
	.word	.LANCHOR2-2068
	.word	-1766
	.word	-1764
	.word	.LANCHOR2+192
	.word	.LC115
	.fnend
	.size	FtlVpcTblFlush.part.16, .-FtlVpcTblFlush.part.16
	.align	2
	.global	FtlVpcTblFlush
	.type	FtlVpcTblFlush, %function
FtlVpcTblFlush:
	.fnstart
	@ args = 0, pretend = 0, frame = 0
	@ frame_needed = 0, uses_anonymous_args = 0
	stmfd	sp!, {r3, lr}
	.save {r3, lr}
	ldr	r3, .L1455
	ldr	r3, [r3, #4044]
	cmp	r3, #0
	bne	.L1454
	bl	FtlVpcTblFlush.part.16
.L1454:
	mov	r0, #0
	ldmfd	sp!, {r3, pc}
.L1456:
	.align	2
.L1455:
	.word	.LANCHOR0
	.fnend
	.size	FtlVpcTblFlush, .-FtlVpcTblFlush
	.section	.text.unlikely
	.align	2
	.type	FtlBbmTblFlush.part.18, %function
FtlBbmTblFlush.part.18:
	.fnstart
	@ args = 0, pretend = 0, frame = 0
	@ frame_needed = 0, uses_anonymous_args = 0
	stmfd	sp!, {r0, r1, r2, r4, r5, r6, r7, r8, r9, sl, fp, lr}
	.save {r0, r1, r2, r4, r5, r6, r7, r8, r9, sl, fp, lr}
	mov	r1, #0
	ldr	r7, .L1469
	mov	r5, #0
	ldr	sl, .L1469+4
	movw	r9, #3874
	ldr	r8, .L1469+8
	ldr	r3, [r7, #-924]
	ldr	r0, [r7, #-948]
	str	r3, [r7, #204]
	movw	r3, #3928
	str	r0, [r7, #200]
	ldrh	r2, [sl, r3]
	bl	ftl_memset
	b	.L1458
.L1459:
	ldr	r3, .L1469+12
	ldr	r1, [r8, #4]!
	ldrh	r2, [r7, r3]
	ldr	r3, [r7, #200]
	mul	r0, r2, r5
	mov	r2, r2, asl #2
	add	r5, r5, #1
	add	r0, r3, r0, asl #2
	bl	memcpy
.L1458:
	ldrh	r3, [sl, r9]
	ldr	r4, .L1469+4
	cmp	r5, r3
	ldr	r6, .L1469
	blt	.L1459
	ldr	r5, [r6, #204]
	mov	r1, #255
	mov	r2, #16
	mov	r7, #0
	mov	fp, r7
	mov	r0, r5
	bl	ftl_memset
	ldr	r3, .L1469+16
	strh	r3, [r5, #0]	@ movhi
	ldr	r3, [r4, #3992]
	str	r3, [r5, #4]
	mov	r3, #3984
	ldrh	r3, [r4, r3]
	strh	r3, [r5, #2]	@ movhi
	movw	r3, #3988
	ldrh	r3, [r4, r3]
	strh	r3, [r5, #8]	@ movhi
	movw	r3, #3990
	ldrh	r3, [r4, r3]
	strh	r3, [r5, #10]	@ movhi
	ldr	r3, [r4, #3848]
	strh	r3, [r5, #12]	@ movhi
.L1467:
	ldr	r3, [r6, #-948]
	mov	r8, #3984
	ldr	r4, .L1469+4
	mov	r1, #0
	movw	sl, #3986
	str	r1, [r6, #192]
	str	r3, [r6, #200]
	movw	r9, #3988
	ldr	r3, [r6, #-924]
	ldrh	r1, [r4, r8]
	ldrh	r2, [r4, sl]
	str	r3, [r6, #204]
	ldrh	r0, [r5, #10]
	orr	r3, r2, r1, asl #10
	str	r3, [r6, #196]
	ldrh	r3, [r4, r9]
	str	r0, [sp, #0]
	ldr	r0, .L1469+20
	bl	printk
	mov	r3, #3920
	ldrh	r3, [r4, r3]
	ldrh	r2, [r4, sl]
	sub	r3, r3, #1
	cmp	r2, r3
	blt	.L1461
	ldr	r3, [r4, #3992]
	mov	r1, #0	@ movhi
	ldrh	r2, [r4, r8]
	add	r3, r3, #1
	ldr	r0, [r4, #4048]
	str	r3, [r4, #3992]
	str	r3, [r5, #4]
	ldrh	r3, [r4, r9]
	strh	r1, [r4, sl]	@ movhi
	mov	r1, #1
	strh	r2, [r5, #8]	@ movhi
	strh	r2, [r4, r9]	@ movhi
	mov	r2, r1
	strh	r3, [r4, r8]	@ movhi
	mov	r3, r3, asl #10
	str	r3, [r6, #196]
	str	r3, [r0, #4]
	bl	FlashEraseBlocks
.L1461:
	ldr	r4, .L1469
	mov	r1, #1
	ldr	r8, .L1469+4
	mov	r2, r1
	mov	r3, r1
	add	r0, r4, #192
	bl	FlashProgPages
	movw	r3, #3986
	ldrh	r2, [r8, r3]
	add	r2, r2, #1
	strh	r2, [r8, r3]	@ movhi
	ldr	r3, [r6, #192]
	cmn	r3, #1
	bne	.L1462
	add	r7, r7, #1
	ldr	r0, .L1469+24
	ldr	r1, [r6, #196]
	uxth	r7, r7
	bl	printk
	cmp	r7, #3
	bls	.L1467
	ldr	r0, .L1469+28
	mov	r2, r7
	ldr	r1, [r4, #196]
	bl	printk
	mov	r3, #1
	str	r3, [r8, #4044]
	b	.L1468
.L1462:
	add	fp, fp, #1
	cmp	fp, #1
	beq	.L1467
	cmp	r3, #256
	beq	.L1467
.L1468:
	ldmfd	sp!, {r1, r2, r3, r4, r5, r6, r7, r8, r9, sl, fp, pc}
.L1470:
	.align	2
.L1469:
	.word	.LANCHOR2
	.word	.LANCHOR0
	.word	.LANCHOR0+4008
	.word	-1016
	.word	-3887
	.word	.LC116
	.word	.LC117
	.word	.LC118
	.fnend
	.size	FtlBbmTblFlush.part.18, .-FtlBbmTblFlush.part.18
	.text
	.align	2
	.global	FtlBbmTblFlush
	.type	FtlBbmTblFlush, %function
FtlBbmTblFlush:
	.fnstart
	@ args = 0, pretend = 0, frame = 0
	@ frame_needed = 0, uses_anonymous_args = 0
	stmfd	sp!, {r3, lr}
	.save {r3, lr}
	ldr	r3, .L1473
	ldr	r3, [r3, #4044]
	cmp	r3, #0
	bne	.L1472
	bl	FtlBbmTblFlush.part.18
.L1472:
	mov	r0, #0
	ldmfd	sp!, {r3, pc}
.L1474:
	.align	2
.L1473:
	.word	.LANCHOR0
	.fnend
	.size	FtlBbmTblFlush, .-FtlBbmTblFlush
	.align	2
	.global	FtlGcFreeBadSuperBlk
	.type	FtlGcFreeBadSuperBlk, %function
FtlGcFreeBadSuperBlk:
	.fnstart
	@ args = 0, pretend = 0, frame = 0
	@ frame_needed = 0, uses_anonymous_args = 0
	stmfd	sp!, {r4, r5, r6, r7, r8, r9, sl, lr}
	.save {r4, r5, r6, r7, r8, r9, sl, lr}
	mov	r9, r0
	ldr	r4, .L1485
	ldr	r3, .L1485+4
	ldrh	r3, [r4, r3]
	cmp	r3, #0
	movne	r6, #0
	movne	sl, r4
	bne	.L1476
	b	.L1477
.L1483:
	add	r3, r3, r6
	mov	r1, r9
	mov	r5, #0
	ldr	r7, .L1485+4
	ldrb	r0, [r3, #3878]	@ zero_extendqisi2
	bl	V2P_block
	mov	r8, r0
	b	.L1478
.L1482:
	add	r3, r4, r5, asl #1
	sub	r3, r3, #1120
	sub	r3, r3, #4
	ldrh	r3, [r3, #0]
	cmp	r3, r8
	bne	.L1479
	mov	r1, r8
	ldr	r0, .L1485+8
	bl	printk
	mov	r0, r8
	bl	FtlBbmMapBadBlock
	bl	FtlBbmTblFlush
	ldrh	r1, [r4, r7]
	mov	r3, r5
	b	.L1480
.L1481:
	add	r0, r3, #1
	add	r3, r4, r3, asl #1
	sub	r3, r3, #1120
	add	r2, r4, r0, asl #1
	sub	r2, r2, #1120
	sub	r2, r2, #4
	ldrh	r2, [r2, #0]
	strh	r2, [r3, #-4]	@ movhi
	uxth	r3, r0
.L1480:
	cmp	r3, r1
	bcc	.L1481
	sub	r1, r1, #1
	strh	r1, [sl, r7]	@ movhi
.L1479:
	add	r5, r5, #1
	uxth	r5, r5
.L1478:
	ldrh	r3, [r4, r7]
	cmp	r3, r5
	bhi	.L1482
	add	r6, r6, #1
	uxth	r6, r6
.L1476:
	ldr	r3, .L1485+12
	movw	r2, #3852
	ldrh	r2, [r3, r2]
	cmp	r2, r6
	bhi	.L1483
	bl	FtlGcReFreshBadBlk
.L1477:
	mov	r0, #0
	ldmfd	sp!, {r4, r5, r6, r7, r8, r9, sl, pc}
.L1486:
	.align	2
.L1485:
	.word	.LANCHOR2
	.word	-1126
	.word	.LC119
	.word	.LANCHOR0
	.fnend
	.size	FtlGcFreeBadSuperBlk, .-FtlGcFreeBadSuperBlk
	.align	2
	.global	update_vpc_list
	.type	update_vpc_list, %function
update_vpc_list:
	.fnstart
	@ args = 0, pretend = 0, frame = 0
	@ frame_needed = 0, uses_anonymous_args = 0
	stmfd	sp!, {r3, r4, r5, lr}
	.save {r3, r4, r5, lr}
	mov	r2, r0, asl #1
	ldr	r3, .L1495
	mov	r4, r0
	ldr	r1, [r3, #-2012]
	ldrh	r2, [r1, r2]
	cmp	r2, #0
	bne	.L1488
	ldr	r1, .L1495+4
	ldrh	r0, [r3, r1]
	cmp	r0, r4
	mvneq	r2, #0
	streqh	r2, [r3, r1]	@ movhi
	beq	.L1490
	ldr	r1, .L1495+8
	ldrh	r1, [r3, r1]
	cmp	r1, r4
	beq	.L1491
	ldr	r1, .L1495+12
	ldrh	r1, [r3, r1]
	cmp	r1, r4
	beq	.L1491
	ldr	r1, .L1495+16
	ldrh	r3, [r3, r1]
	cmp	r3, r4
	beq	.L1491
.L1490:
	ldr	r5, .L1495
	mov	r1, r4
	sub	r0, r5, #2016
	bl	List_remove_node
	ldr	r3, .L1495+20
	mov	r0, r4
	ldrh	r2, [r5, r3]
	sub	r2, r2, #1
	strh	r2, [r5, r3]	@ movhi
	bl	free_data_superblock
	mov	r0, r4
	bl	FtlGcFreeBadSuperBlk
	mov	r2, #1
	b	.L1491
.L1488:
	bl	List_update_data_list
	mov	r2, #0
.L1491:
	mov	r0, r2
	ldmfd	sp!, {r3, r4, r5, pc}
.L1496:
	.align	2
.L1495:
	.word	.LANCHOR2
	.word	-1752
	.word	-1992
	.word	-1944
	.word	-1896
	.word	-2004
	.fnend
	.size	update_vpc_list, .-update_vpc_list
	.align	2
	.global	decrement_vpc_count
	.type	decrement_vpc_count, %function
decrement_vpc_count:
	.fnstart
	@ args = 0, pretend = 0, frame = 0
	@ frame_needed = 0, uses_anonymous_args = 0
	movw	r3, #65535
	cmp	r0, r3
	stmfd	sp!, {r4, r5, r6, lr}
	.save {r4, r5, r6, lr}
	mov	r4, r0
	beq	.L1498
	ldr	r2, .L1503
	mov	r3, r0, asl #1
	ldr	r2, [r2, #-2012]
	ldrh	r1, [r2, r3]
	cmp	r1, #0
	subne	r1, r1, #1
	strneh	r1, [r2, r3]	@ movhi
	bne	.L1498
	ldmfd	sp!, {r4, r5, r6, lr}
	b	decrement_vpc_count.part.20
.L1498:
	ldr	r6, .L1503
	movw	r3, #65535
	ldr	r5, .L1503+4
	ldrh	r0, [r6, r5]
	cmp	r0, r3
	streqh	r4, [r6, r5]	@ movhi
	moveq	r0, #0
	ldmeqfd	sp!, {r4, r5, r6, pc}
	cmp	r0, r4
	beq	.L1502
	bl	update_vpc_list
	strh	r4, [r6, r5]	@ movhi
	adds	r0, r0, #0
	movne	r0, #1
	ldmfd	sp!, {r4, r5, r6, pc}
.L1502:
	mov	r0, #0
	ldmfd	sp!, {r4, r5, r6, pc}
.L1504:
	.align	2
.L1503:
	.word	.LANCHOR2
	.word	-1008
	.fnend
	.size	decrement_vpc_count, .-decrement_vpc_count
	.align	2
	.global	get_new_active_ppa
	.type	get_new_active_ppa, %function
get_new_active_ppa:
	.fnstart
	@ args = 0, pretend = 0, frame = 0
	@ frame_needed = 0, uses_anonymous_args = 0
	stmfd	sp!, {r3, r4, r5, r6, r7, lr}
	.save {r3, r4, r5, r6, r7, lr}
	mov	r3, #0
	strb	r3, [r0, #10]
	mov	r4, r0
	ldrb	r3, [r0, #6]	@ zero_extendqisi2
	movw	r6, #65535
	ldr	r5, .L1517
	ldr	r7, .L1517+4
	add	r3, r0, r3, asl #1
	ldrh	r3, [r3, #16]
	b	.L1506
.L1507:
	ldrb	r3, [r4, #6]	@ zero_extendqisi2
	movw	r2, #3852
	ldrh	r2, [r5, r2]
	add	r3, r3, #1
	uxtb	r3, r3
	strb	r3, [r4, #6]
	cmp	r2, r3
	ldreqh	r3, [r4, #2]
	addeq	r3, r3, #1
	streqh	r3, [r4, #2]	@ movhi
	moveq	r3, #0
	streqb	r3, [r4, #6]
	ldrb	r3, [r4, #6]	@ zero_extendqisi2
	add	r3, r4, r3, asl #1
	ldrh	r3, [r3, #16]
.L1506:
	cmp	r3, r6
	beq	.L1507
	ldrb	r2, [r4, #8]	@ zero_extendqisi2
	cmp	r2, #1
	bne	.L1509
	ldrb	r2, [r5, #3072]	@ zero_extendqisi2
	cmp	r2, #0
	bne	.L1509
	ldrh	r2, [r4, #2]
	add	r2, r7, r2, asl #1
	sub	r2, r2, #880
	ldrh	r2, [r2, #0]
	cmp	r2, r6
	bne	.L1509
	ldrh	r3, [r4, #4]
	ldrh	r0, [r4, #0]
	sub	r3, r3, #1
	strh	r3, [r4, #4]	@ movhi
	bl	decrement_vpc_count
	b	.L1507
.L1509:
	ldrh	r6, [r4, #2]
	movw	r5, #65535
	mov	r7, r5
	orr	r6, r6, r3, asl #10
	ldrh	r3, [r4, #4]
	sub	r3, r3, #1
	strh	r3, [r4, #4]	@ movhi
.L1514:
	ldr	r2, .L1517
	movw	r3, #3852
	ldrh	r2, [r2, r3]
	ldrb	r3, [r4, #6]	@ zero_extendqisi2
.L1511:
	add	r3, r3, #1
	uxtb	r3, r3
	cmp	r3, r2
	ldreqh	r3, [r4, #2]
	addeq	r3, r3, #1
	streqh	r3, [r4, #2]	@ movhi
	moveq	r3, #0
	add	r1, r4, r3, asl #1
	ldrh	r1, [r1, #16]
	cmp	r1, r5
	beq	.L1511
	strb	r3, [r4, #6]
	ldrb	r3, [r4, #8]	@ zero_extendqisi2
	cmp	r3, #1
	bne	.L1512
	ldr	r3, .L1517
	ldrb	r2, [r3, #3072]	@ zero_extendqisi2
	cmp	r2, #0
	ldrh	r2, [r4, #2]
	bne	.L1515
	ldr	r3, .L1517+4
	add	r2, r3, r2, asl #1
	sub	r2, r2, #880
	ldrh	r3, [r2, #0]
	cmp	r3, r7
	bne	.L1512
	ldrh	r3, [r4, #4]
	cmp	r3, #0
	beq	.L1512
	sub	r3, r3, #1
	ldrh	r0, [r4, #0]
	strh	r3, [r4, #4]	@ movhi
	bl	decrement_vpc_count
	b	.L1514
.L1515:
	mov	r1, #3920
	ldrh	r1, [r3, r1]
	cmp	r2, r1
	bcc	.L1512
	ldr	r1, .L1517+4
	ldrh	r2, [r4, #0]
	ldrh	r0, [r4, #4]
	ldr	r1, [r1, #-2012]
	mov	r2, r2, asl #1
	ldrh	ip, [r1, r2]
	rsb	r0, r0, ip
	strh	r0, [r1, r2]	@ movhi
	mov	r2, #0
	strh	r2, [r4, #4]	@ movhi
	mov	r1, r2	@ movhi
	movw	r2, #3918
	ldrh	r3, [r3, r2]
	strb	r1, [r4, #6]
	strh	r3, [r4, #2]	@ movhi
.L1512:
	mov	r0, r6
	ldmfd	sp!, {r3, r4, r5, r6, r7, pc}
.L1518:
	.align	2
.L1517:
	.word	.LANCHOR0
	.word	.LANCHOR2
	.fnend
	.size	get_new_active_ppa, .-get_new_active_ppa
	.align	2
	.type	FtlSlcSuperblockCheck.part.21, %function
FtlSlcSuperblockCheck.part.21:
	.fnstart
	@ args = 0, pretend = 0, frame = 0
	@ frame_needed = 0, uses_anonymous_args = 0
	stmfd	sp!, {r3, r4, r5, r6, r7, lr}
	.save {r3, r4, r5, r6, r7, lr}
	mov	r4, r0
	ldrb	r3, [r0, #6]	@ zero_extendqisi2
	movw	r6, #65535
	ldr	r5, .L1525
	ldr	r7, .L1525+4
	add	r3, r0, r3, asl #1
	ldrh	r3, [r3, #16]
	b	.L1520
.L1521:
	ldrb	r3, [r4, #6]	@ zero_extendqisi2
	movw	r2, #3852
	ldrh	r2, [r5, r2]
	add	r3, r3, #1
	uxtb	r3, r3
	strb	r3, [r4, #6]
	cmp	r2, r3
	ldreqh	r3, [r4, #2]
	addeq	r3, r3, #1
	streqh	r3, [r4, #2]	@ movhi
	moveq	r3, #0
	streqb	r3, [r4, #6]
	ldrb	r3, [r4, #6]	@ zero_extendqisi2
	add	r3, r4, r3, asl #1
	ldrh	r3, [r3, #16]
.L1520:
	cmp	r3, r6
	beq	.L1521
	ldrb	r2, [r4, #8]	@ zero_extendqisi2
	cmp	r2, #1
	bne	.L1523
	ldrb	r3, [r5, #3072]	@ zero_extendqisi2
	cmp	r3, #0
	bne	.L1523
	ldrh	r3, [r4, #2]
	add	r3, r7, r3, asl #1
	sub	r3, r3, #880
	ldrh	r3, [r3, #0]
	cmp	r3, r6
	bne	.L1523
	ldrh	r3, [r4, #4]
	ldrh	r0, [r4, #0]
	sub	r3, r3, #1
	strh	r3, [r4, #4]	@ movhi
	bl	decrement_vpc_count
	ldrh	r3, [r4, #4]
	cmp	r3, #0
	bne	.L1521
	ldrh	r2, [r4, #2]
	strb	r3, [r4, #6]
	add	r2, r2, #1
	strh	r2, [r4, #2]	@ movhi
	ldmfd	sp!, {r3, r4, r5, r6, r7, pc}
.L1523:
	ldr	r3, .L1525
	ldrb	r1, [r3, #3072]	@ zero_extendqisi2
	cmp	r1, #0
	ldmeqfd	sp!, {r3, r4, r5, r6, r7, pc}
	cmp	r2, #1
	ldmnefd	sp!, {r3, r4, r5, r6, r7, pc}
	mov	r2, #3920
	ldrh	r1, [r4, #2]
	ldrh	r2, [r3, r2]
	cmp	r1, r2
	ldmccfd	sp!, {r3, r4, r5, r6, r7, pc}
	ldr	r1, .L1525+4
	ldrh	r2, [r4, #0]
	ldrh	r0, [r4, #4]
	ldr	r1, [r1, #-2012]
	mov	r2, r2, asl #1
	ldrh	ip, [r1, r2]
	rsb	r0, r0, ip
	strh	r0, [r1, r2]	@ movhi
	mov	r2, #0
	strh	r2, [r4, #4]	@ movhi
	mov	r1, r2	@ movhi
	movw	r2, #3918
	ldrh	r3, [r3, r2]
	strb	r1, [r4, #6]
	strh	r3, [r4, #2]	@ movhi
	ldmfd	sp!, {r3, r4, r5, r6, r7, pc}
.L1526:
	.align	2
.L1525:
	.word	.LANCHOR0
	.word	.LANCHOR2
	.fnend
	.size	FtlSlcSuperblockCheck.part.21, .-FtlSlcSuperblockCheck.part.21
	.align	2
	.global	FtlSlcSuperblockCheck
	.type	FtlSlcSuperblockCheck, %function
FtlSlcSuperblockCheck:
	.fnstart
	@ args = 0, pretend = 0, frame = 0
	@ frame_needed = 0, uses_anonymous_args = 0
	@ link register save eliminated.
	ldrh	r2, [r0, #4]
	cmp	r2, #0
	bxeq	lr
	ldrh	r2, [r0, #0]
	movw	r3, #65535
	cmp	r2, r3
	bxeq	lr
	b	FtlSlcSuperblockCheck.part.21
	.fnend
	.size	FtlSlcSuperblockCheck, .-FtlSlcSuperblockCheck
	.align	2
	.type	allocate_data_superblock.part.22, %function
allocate_data_superblock.part.22:
	.fnstart
	@ args = 0, pretend = 0, frame = 24
	@ frame_needed = 0, uses_anonymous_args = 0
	stmfd	sp!, {r4, r5, r6, r7, r8, r9, sl, fp, lr}
	.save {r4, r5, r6, r7, r8, r9, sl, fp, lr}
	.pad #28
	sub	sp, sp, #28
	ldr	r6, .L1568
	mov	r4, r0
	ldr	r5, .L1568+4
	mov	sl, r6
.L1563:
	ldr	r3, .L1568+8
	cmp	r4, r3
	bne	.L1531
	ldr	r3, .L1568+12
	ldrh	r2, [r5, r3]
	ldr	r3, [r5, #-1176]
	mov	r1, r2, lsr #1
	mul	ip, r3, r2
	add	r0, r1, #1
	add	r0, r0, ip, lsr #2
	ldr	ip, [r6, #3844]
	cmp	ip, #0
	uxth	r0, r0
	beq	.L1555
	ldr	ip, [r5, #-1776]
	cmp	ip, #39
	bhi	.L1555
	cmp	ip, #2
	bls	.L1560
	tst	r2, #1
	beq	.L1532
	cmp	r3, #0
	moveq	r1, r3
	beq	.L1533
	b	.L1532
.L1531:
	ldrb	r3, [r4, #8]	@ zero_extendqisi2
	cmp	r3, #1
	bne	.L1560
	mov	r3, #3872
	ldrh	r3, [r6, r3]
	cmp	r3, #1
	beq	.L1560
	ldrb	r3, [r6, #3072]	@ zero_extendqisi2
	cmp	r3, #0
	bne	.L1560
	ldr	r3, .L1568+12
	ldr	r2, [r6, #3844]
	ldrh	r3, [r5, r3]
	cmp	r2, #0
	mov	r1, r3, lsr #3
	beq	.L1532
	ldr	r2, [r5, #-1776]
	cmp	r2, #1
	movls	r1, #7
	mulls	r1, r1, r3
	movls	r1, r1, lsr #3
	b	.L1532
.L1555:
	mov	r1, r0
.L1532:
	cmp	r1, #0
	subne	r1, r1, #1
	uxthne	r1, r1
	b	.L1533
.L1560:
	mov	r1, #0
.L1533:
	ldrb	r2, [r4, #8]	@ zero_extendqisi2
	ldr	r0, .L1568+16
	bl	List_pop_index_node
	ldr	r3, .L1568+12
	ldrh	r2, [r5, r3]
	sub	r2, r2, #1
	strh	r2, [r5, r3]	@ movhi
	movw	r3, #3860
	ldrh	r3, [r6, r3]
	uxth	r9, r0
	cmp	r3, r9
	bls	.L1563
	ldr	r3, [r5, #-2012]
	mov	r7, r9, asl #1
	ldrh	r8, [r3, r7]
	cmp	r8, #0
	bne	.L1563
	strh	r9, [r4, #0]	@ movhi
	mov	r0, r4
	bl	make_superblock
	ldrb	r3, [r4, #7]	@ zero_extendqisi2
	cmp	r3, #0
	beq	.L1564
	movw	r3, #3852
	ldr	ip, [r6, #4048]
	ldrh	r3, [r6, r3]
	mov	r1, r4
	str	r4, [sp, #16]
	mov	r2, r8
	mov	r0, r8
	stmia	sp, {r4, ip}
	str	r3, [sp, #20]
	mov	r3, ip
	b	.L1536
.L1538:
	str	r0, [r3, #8]
	movw	r4, #65535
	str	r0, [r3, #12]
	ldrh	lr, [r1, #16]
	cmp	lr, r4
	beq	.L1537
	ldr	r4, [sp, #4]
	mov	ip, #36
	mov	lr, lr, asl #10
	mla	fp, ip, r8, r4
	add	r8, r8, #1
	uxth	r8, r8
	str	lr, [fp, #4]
.L1537:
	add	r2, r2, #1
	add	r3, r3, #36
	add	r1, r1, #2
	uxth	r2, r2
.L1536:
	ldr	fp, [sp, #20]
	cmp	r2, fp
	bne	.L1538
	ldr	r3, [r6, #3844]
	ldr	r4, [sp, #0]
	cmp	r3, #0
	beq	.L1539
	ldr	r3, .L1568+20
	cmp	r4, r3
	bne	.L1539
	ldr	r3, [r6, #4052]
	ldrh	r3, [r3, r7]
	cmp	r3, #40
	movhi	r3, #0
	strhib	r3, [r5, #-1984]
.L1539:
	ldrb	r3, [r4, #8]	@ zero_extendqisi2
	cmp	r3, #0
	ldr	r3, [sl, #4052]
	ldrh	r2, [r3, r7]
	bne	.L1540
	cmp	r2, #0
	mov	r0, r9
	movwne	r1, #3910
	moveq	r2, #2
	ldrneh	r1, [r6, r1]
	addne	r2, r2, r1
	strh	r2, [r3, r7]	@ movhi
	ldr	r3, [r5, #-1792]
	mov	r1, #0
	add	r3, r3, #1
	str	r3, [r5, #-1792]
	b	.L1566
.L1540:
	add	r2, r2, #1
	strh	r2, [r3, r7]	@ movhi
	ldr	r3, [r5, #-1788]
	mov	r0, r9
	mov	r1, #1
	add	r3, r3, #1
	str	r3, [r5, #-1788]
.L1566:
	bl	ftl_set_blk_mode
	ldr	r3, [r6, #4052]
	ldr	fp, .L1568+4
	ldr	r2, [r5, #-1780]
	ldrh	r3, [r3, r7]
	ldr	r0, [fp, #-1792]
	cmp	r3, r2
	strhi	r3, [r5, #-1780]
	movw	r3, #3910
	ldrh	r2, [sl, r3]
	ldr	r3, [fp, #-1788]
	mla	r0, r0, r2, r3
	movw	r3, #3860
	ldrh	r1, [sl, r3]
	bl	__aeabi_uidiv
	ldr	r3, [fp, #-908]
	ldr	r2, [r3, #16]
	add	r2, r2, #1
	str	r2, [r3, #16]
	ldr	r3, [sl, #4048]
	mov	r2, #0
	str	r0, [fp, #-1784]
	b	.L1545
.L1546:
	add	r2, r2, #1
	ldr	r1, [r3, #-32]
	uxth	r2, r2
	bic	r1, r1, #1020
	bic	r1, r1, #3
	str	r1, [r3, #-32]
.L1545:
	cmp	r2, r8
	add	r3, r3, #36
	bne	.L1546
	ldrb	r3, [r6, #3072]	@ zero_extendqisi2
	cmp	r3, #0
	beq	.L1547
	ldrb	r3, [r4, #8]	@ zero_extendqisi2
	mov	r2, r8
	ldr	r0, [r6, #4048]
	cmp	r3, #1
	moveq	r1, #0
	movne	r1, #1
	bl	FlashEraseBlocks
.L1547:
	mov	r2, r8
	ldr	r0, [sl, #4048]
	ldrb	r1, [r4, #8]	@ zero_extendqisi2
	bl	FlashEraseBlocks
	mov	r2, #36
	mul	r2, r2, r8
	mov	r8, #0
	mov	r3, r9
	mov	fp, r8
	mov	r9, r2
	mov	r2, r7
	mov	r7, r4
	b	.L1549
.L1551:
	ldr	r0, [r6, #4048]
	add	r1, r0, r8
	ldr	r4, [r0, r8]
	cmn	r4, #1
	bne	.L1550
	ldr	r0, [r1, #4]
	add	fp, fp, #1
	str	r2, [sp, #8]
	ubfx	r0, r0, #10, #16
	str	r3, [sp, #12]
	bl	FtlBbmMapBadBlock
	ldr	ip, [sp, #16]
	strh	r4, [ip, #16]	@ movhi
	ldrb	r1, [r7, #7]	@ zero_extendqisi2
	sub	r1, r1, #1
	strb	r1, [r7, #7]
	ldr	r3, [sp, #12]
	ldr	r2, [sp, #8]
.L1550:
	ldr	r4, [sp, #16]
	add	r8, r8, #36
	add	r4, r4, #2
	str	r4, [sp, #16]
.L1549:
	cmp	r8, r9
	bne	.L1551
	cmp	fp, #0
	mov	r4, r7
	mov	r9, r3
	mov	r7, r2
	beq	.L1552
	mov	r0, r3
	bl	update_multiplier_value
	bl	FtlBbmTblFlush
.L1552:
	ldrb	r3, [r4, #7]	@ zero_extendqisi2
	cmp	r3, #0
	bne	.L1553
.L1564:
	ldr	r3, [r5, #-2012]
	mvn	r2, #0
	strh	r2, [r3, r7]	@ movhi
	b	.L1563
.L1553:
	ldr	r1, .L1568
	movw	r2, #3918
	ldrh	r2, [r1, r2]
	strh	r9, [r4, #0]	@ movhi
	mul	r2, r2, r3
	mov	r3, #0
	strh	r3, [r4, #2]	@ movhi
	strb	r3, [r4, #6]
	ldr	r3, .L1568+4
	uxth	r2, r2
	strh	r2, [r4, #4]	@ movhi
	ldr	r1, [r3, #-1800]
	str	r1, [r4, #12]
	add	r1, r1, #1
	str	r1, [r3, #-1800]
	ldrh	r0, [r4, #0]
	ldr	r1, [r3, #-2012]
	mov	r3, r0, asl #1
	strh	r2, [r1, r3]	@ movhi
	add	sp, sp, #28
	ldmfd	sp!, {r4, r5, r6, r7, r8, r9, sl, fp, pc}
.L1569:
	.align	2
.L1568:
	.word	.LANCHOR0
	.word	.LANCHOR2
	.word	.LANCHOR2-1896
	.word	-1996
	.word	.LANCHOR2-2000
	.word	.LANCHOR2-1992
	.fnend
	.size	allocate_data_superblock.part.22, .-allocate_data_superblock.part.22
	.align	2
	.global	allocate_data_superblock
	.type	allocate_data_superblock, %function
allocate_data_superblock:
	.fnstart
	@ args = 0, pretend = 0, frame = 0
	@ frame_needed = 0, uses_anonymous_args = 0
	stmfd	sp!, {r3, lr}
	.save {r3, lr}
	ldr	r3, .L1572
	ldr	r3, [r3, #4044]
	cmp	r3, #0
	bne	.L1571
	bl	allocate_data_superblock.part.22
.L1571:
	mov	r0, #0
	ldmfd	sp!, {r3, pc}
.L1573:
	.align	2
.L1572:
	.word	.LANCHOR0
	.fnend
	.size	allocate_data_superblock, .-allocate_data_superblock
	.align	2
	.global	FtlSuperblockPowerLostFix
	.type	FtlSuperblockPowerLostFix, %function
FtlSuperblockPowerLostFix:
	.fnstart
	@ args = 0, pretend = 0, frame = 40
	@ frame_needed = 0, uses_anonymous_args = 0
	ldr	r2, .L1584
	stmfd	sp!, {r4, r5, r6, r7, r8, sl, lr}
	.save {r4, r5, r6, r7, r8, sl, lr}
	mov	r4, r0
	ldr	r3, [r2, #4044]
	.pad #44
	sub	sp, sp, #44
	cmp	r3, #0
	bne	.L1574
	ldrb	r7, [r2, #3072]	@ zero_extendqisi2
	cmp	r7, #0
	beq	.L1583
	ldrb	r7, [r0, #8]	@ zero_extendqisi2
	cmp	r7, #1
	ldreqh	r8, [r0, #4]
	beq	.L1576
	mov	r7, r3
.L1583:
	mov	r8, #12
.L1576:
	ldr	r6, .L1584+4
	mvn	r3, #0
	str	r3, [sp, #20]
	mov	sl, #0
	movw	r2, #61589
	ldr	r5, [r6, #-924]
	ldr	r3, [r6, #-948]
	str	r5, [sp, #16]
	str	r3, [sp, #12]
	mvn	r3, #2
	str	r3, [r5, #8]
	mvn	r3, #1
	str	r3, [r5, #12]
	ldrh	r3, [r4, #0]
	strh	sl, [r5, #0]	@ movhi
	strh	r3, [r5, #2]	@ movhi
	ldr	r3, [r6, #-948]
	str	r2, [r3, #0]
	ldr	r2, .L1584+8
	ldr	r3, [r6, #-948]
	str	r2, [r3, #4]
	b	.L1577
.L1580:
	ldrh	r3, [r4, #4]
	cmp	r3, #0
	beq	.L1578
	mov	r0, r4
	bl	get_new_active_ppa
	cmn	r0, #1
	str	r0, [sp, #8]
	beq	.L1578
	ldr	r3, [r6, #-1796]
	mov	r1, #1
	mov	r2, r7
	add	r0, sp, #4
	sub	r8, r8, #1
	str	r3, [r5, #4]
	add	r3, r3, #1
	cmn	r3, #1
	moveq	r3, sl
	str	r3, [r6, #-1796]
	mov	r3, #0
	bl	FlashProgPages
	ldrh	r0, [r4, #0]
	bl	decrement_vpc_count
.L1577:
	cmp	r8, #0
	bne	.L1580
.L1578:
	ldr	r2, .L1584+4
	ldrh	r3, [r4, #0]
	ldrh	r1, [r4, #4]
	ldr	r2, [r2, #-2012]
	mov	r3, r3, asl #1
	ldrh	r0, [r2, r3]
	rsb	r1, r1, r0
	strh	r1, [r2, r3]	@ movhi
	ldr	r2, .L1584
	movw	r3, #3918
	ldrh	r3, [r2, r3]
	strh	r3, [r4, #2]	@ movhi
	mov	r3, #0
	strb	r3, [r4, #6]
	strh	r3, [r4, #4]	@ movhi
.L1574:
	add	sp, sp, #44
	ldmfd	sp!, {r4, r5, r6, r7, r8, sl, pc}
.L1585:
	.align	2
.L1584:
	.word	.LANCHOR0
	.word	.LANCHOR2
	.word	305419896
	.fnend
	.size	FtlSuperblockPowerLostFix, .-FtlSuperblockPowerLostFix
	.align	2
	.global	FtlLowFormatEraseBlock
	.type	FtlLowFormatEraseBlock, %function
FtlLowFormatEraseBlock:
	.fnstart
	@ args = 0, pretend = 0, frame = 24
	@ frame_needed = 0, uses_anonymous_args = 0
	stmfd	sp!, {r4, r5, r6, r7, r8, r9, sl, fp, lr}
	.save {r4, r5, r6, r7, r8, r9, sl, fp, lr}
	mov	sl, r1
	ldr	r8, .L1616
	.pad #28
	sub	sp, sp, #28
	str	r0, [sp, #8]
	ldr	r6, [r8, #4044]
	ldrb	r1, [r8, #3841]	@ zero_extendqisi2
	cmp	r6, #0
	str	r1, [sp, #16]
	movne	r4, #0
	bne	.L1587
	ldrb	r2, [r8, #3072]	@ zero_extendqisi2
	mov	r5, r6
	ldr	fp, .L1616+4
	mov	r4, r6
	mov	r9, #36
	str	r2, [sp, #4]
	str	r0, [fp, #-972]
	b	.L1588
.L1592:
	mul	r3, r9, r6
	ldr	r2, [r8, #4048]
	mov	r1, #0
	str	r1, [r2, r3]
	add	r3, r8, r6
	ldr	r1, [sp, #8]
	ldrb	r0, [r3, #3878]	@ zero_extendqisi2
	bl	V2P_block
	cmp	sl, #0
	mov	r7, r0
	beq	.L1589
	bl	IsBlkInVendorPart
	cmp	r0, #0
	bne	.L1590
.L1589:
	mov	r0, r7
	bl	FtlBbmIsBadBlock
	cmp	r0, #0
	addne	r4, r4, #1
	uxthne	r4, r4
	bne	.L1590
	movw	r1, #3930
	ldr	r3, [r8, #4048]
	ldrh	r2, [r8, r1]
	mov	r7, r7, asl #10
	mla	r3, r9, r5, r3
	mul	r2, r2, r5
	add	r5, r5, #1
	uxth	r5, r5
	add	r1, r2, #3
	cmp	r2, #0
	str	r7, [r3, #4]
	movlt	r2, r1
	ldr	r1, [fp, #-920]
	bic	r2, r2, #3
	str	r0, [r3, #8]
	add	r2, r1, r2
	str	r2, [r3, #12]
.L1590:
	add	r6, r6, #1
	uxth	r6, r6
.L1588:
	movw	r2, #3852
	ldr	r7, .L1616
	ldrh	r3, [r8, r2]
	cmp	r3, r6
	bhi	.L1592
	cmp	r5, #0
	beq	.L1587
	ldr	r3, [sp, #4]
	mov	r8, #0
	ldr	r0, [r7, #4048]
	mov	r2, r5
	adds	r6, r3, #0
	strb	r8, [r7, #3841]
	mov	r9, r8
	movne	r6, #1
	mov	r1, r6
	bl	FlashEraseBlocks
	ldr	r1, [sp, #16]
	strb	r1, [r7, #3841]
.L1595:
	ldr	r3, [r7, #4048]
	add	r2, r3, r8
	ldr	r3, [r3, r8]
	cmn	r3, #1
	bne	.L1594
	ldr	r0, [r2, #4]
	add	r4, r4, #1
	ubfx	r0, r0, #10, #16
	uxth	r4, r4
	bl	FtlBbmMapBadBlock
.L1594:
	add	r9, r9, #1
	add	r8, r8, #36
	uxth	r9, r9
	cmp	r9, r5
	bne	.L1595
	cmp	sl, #0
	beq	.L1609
	ldr	r3, .L1616
	mov	r2, #3920
	ldrh	r2, [r3, r2]
	ldrb	r3, [r3, #3072]	@ zero_extendqisi2
	cmp	r3, #0
	str	r2, [sp, #12]
	moveq	r2, r2, lsr #2
	streq	r2, [sp, #4]
	moveq	r6, #1
	beq	.L1596
	b	.L1615
.L1609:
	mov	r3, #6
	mov	r1, #1
	str	r3, [sp, #4]
	str	r1, [sp, #12]
	b	.L1596
.L1615:
	mov	r6, #1
	str	r6, [sp, #4]
.L1596:
	ldr	r7, .L1616
	mov	r8, #0
.L1604:
	mov	r9, #0
	ldr	fp, .L1616+4
	mov	r5, r9
	b	.L1597
.L1600:
	mov	r1, #36
	ldr	r2, [r7, #4048]
	mul	r3, r1, r9
	mov	r1, #0
	str	r1, [r2, r3]
	add	r3, r7, r9
	ldr	r1, [sp, #8]
	ldrb	r0, [r3, #3878]	@ zero_extendqisi2
	bl	V2P_block
	cmp	sl, #0
	str	r0, [sp, #20]
	beq	.L1598
	bl	IsBlkInVendorPart
	cmp	r0, #0
	bne	.L1599
.L1598:
	ldr	r0, [sp, #20]
	bl	FtlBbmIsBadBlock
	cmp	r0, #0
	bne	.L1599
	ldr	r3, [r7, #4048]
	mov	r2, #36
	ldr	r1, [sp, #20]
	mla	r3, r2, r5, r3
	add	r2, r8, r1, asl #10
	movw	r1, #3930
	str	r2, [r3, #4]
	ldr	r2, [fp, #-932]
	str	r2, [r3, #8]
	ldrh	r2, [r7, r1]
	mul	r2, r2, r5
	add	r5, r5, #1
	uxth	r5, r5
	add	r1, r2, #3
	cmp	r2, #0
	movlt	r2, r1
	ldr	r1, [fp, #-928]
	bic	r2, r2, #3
	add	r2, r1, r2
